ARM GAS  C:\Users\Vishwas\AppData\Local\Temp\ccA32DKj.s 			page 1


   1              		.syntax unified
   2              		.cpu cortex-m4
   3              		.eabi_attribute 27, 1
   4              		.fpu fpv4-sp-d16
   5              		.eabi_attribute 20, 1
   6              		.eabi_attribute 21, 1
   7              		.eabi_attribute 23, 3
   8              		.eabi_attribute 24, 1
   9              		.eabi_attribute 25, 1
  10              		.eabi_attribute 26, 1
  11              		.eabi_attribute 30, 1
  12              		.eabi_attribute 34, 1
  13              		.eabi_attribute 18, 4
  14              		.thumb
  15              		.syntax unified
  16              		.file	"i2cFunctions.c"
  17              		.text
  18              	.Ltext0:
  19              		.cfi_sections	.debug_frame
  20              		.section	.text.I2CReadBytes,"ax",%progbits
  21              		.align	2
  22              		.global	I2CReadBytes
  23              		.thumb
  24              		.thumb_func
  25              		.type	I2CReadBytes, %function
  26              	I2CReadBytes:
  27              	.LFB508:
  28              		.file 1 "i2cFunctions.c"
   1:i2cFunctions.c **** /*****************************************************************************
   2:i2cFunctions.c **** * File Name: i2cFunctions.c
   3:i2cFunctions.c **** * 
   4:i2cFunctions.c **** * Version 1.0
   5:i2cFunctions.c **** *
   6:i2cFunctions.c **** * Description:
   7:i2cFunctions.c **** *  
   8:i2cFunctions.c **** *
   9:i2cFunctions.c **** * Hardware Dependency:
  10:i2cFunctions.c **** * 	PSoC 6 Kit CY8CKIT-062
  11:i2cFunctions.c **** *
  12:i2cFunctions.c **** * Code Tested With:
  13:i2cFunctions.c **** * 	Creator 3.3
  14:i2cFunctions.c **** *
  15:i2cFunctions.c **** ******************************************************************************
  16:i2cFunctions.c **** * Copyright (2016), Cypress Semiconductor Corporation.
  17:i2cFunctions.c **** ******************************************************************************
  18:i2cFunctions.c **** * This software is owned by Cypress Semiconductor Corporation (Cypress) and is
  19:i2cFunctions.c **** * protected by and subject to worldwide patent protection (United States and
  20:i2cFunctions.c **** * foreign), United States copyright laws and international treaty provisions.
  21:i2cFunctions.c **** * Cypress hereby grants to licensee a personal, non-exclusive, non-transferable
  22:i2cFunctions.c **** * license to copy, use, modify, create derivative works of, and compile the
  23:i2cFunctions.c **** * Cypress Source Code and derivative works for the sole purpose of creating
  24:i2cFunctions.c **** * custom software in support of licensee product to be used only in conjunction
  25:i2cFunctions.c **** * with a Cypress integrated circuit as specified in the applicable agreement.
  26:i2cFunctions.c **** * Any reproduction, modification, translation, compilation, or representation of
  27:i2cFunctions.c **** * this software except as specified above is prohibited without the express
  28:i2cFunctions.c **** * written permission of Cypress.
  29:i2cFunctions.c **** *
ARM GAS  C:\Users\Vishwas\AppData\Local\Temp\ccA32DKj.s 			page 2


  30:i2cFunctions.c **** * Disclaimer: CYPRESS MAKES NO WARRANTY OF ANY KIND, EXPRESS OR IMPLIED, WITH
  31:i2cFunctions.c **** * REGARD TO THIS MATERIAL, INCLUDING, BUT NOT LIMITED TO, THE IMPLIED
  32:i2cFunctions.c **** * WARRANTIES OF MERCHANTABILITY AND FITNESS FOR A PARTICULAR PURPOSE.
  33:i2cFunctions.c **** * Cypress reserves the right to make changes without further notice to the
  34:i2cFunctions.c **** * materials described herein. Cypress does not assume any liability arising out
  35:i2cFunctions.c **** * of the application or use of any product or circuit described herein. Cypress
  36:i2cFunctions.c **** * does not authorize its products for use as critical components in life-support
  37:i2cFunctions.c **** * systems where a malfunction or failure may reasonably be expected to result in
  38:i2cFunctions.c **** * significant injury to the user. The inclusion of Cypress' product in a life-
  39:i2cFunctions.c **** * support systems application implies that the manufacturer assumes all risk of
  40:i2cFunctions.c **** * such use and in doing so indemnifies Cypress against all charges. Use may be
  41:i2cFunctions.c **** * limited by and subject to the applicable Cypress software license agreement.
  42:i2cFunctions.c **** *****************************************************************************/
  43:i2cFunctions.c **** #include <project.h>
  44:i2cFunctions.c **** 
  45:i2cFunctions.c **** uint8_t temp_value = 0;
  46:i2cFunctions.c **** 
  47:i2cFunctions.c **** void I2CReadBytes(uint8_t devAddr, uint8_t regAddr, uint8_t length, uint8_t *value)
  48:i2cFunctions.c **** {
  29              		.loc 1 48 0
  30              		.cfi_startproc
  31              		@ args = 0, pretend = 0, frame = 0
  32              		@ frame_needed = 0, uses_anonymous_args = 0
  33              	.LVL0:
  34 0000 2DE9F043 		push	{r4, r5, r6, r7, r8, r9, lr}
  35              		.cfi_def_cfa_offset 28
  36              		.cfi_offset 4, -28
  37              		.cfi_offset 5, -24
  38              		.cfi_offset 6, -20
  39              		.cfi_offset 7, -16
  40              		.cfi_offset 8, -12
  41              		.cfi_offset 9, -8
  42              		.cfi_offset 14, -4
  43 0004 83B0     		sub	sp, sp, #12
  44              		.cfi_def_cfa_offset 40
  45 0006 8046     		mov	r8, r0
  46 0008 8946     		mov	r9, r1
  47 000a 1546     		mov	r5, r2
  48 000c 1E46     		mov	r6, r3
  49              	.LVL1:
  50              	.LBB22:
  51              	.LBB23:
  52              		.file 2 "Generated_Source\\PSoC6/I2C_MPU6050.h"
   1:Generated_Source\PSoC6/I2C_MPU6050.h **** /***************************************************************************//**
   2:Generated_Source\PSoC6/I2C_MPU6050.h **** * \file I2C_MPU6050.c
   3:Generated_Source\PSoC6/I2C_MPU6050.h **** * \version 2.0
   4:Generated_Source\PSoC6/I2C_MPU6050.h **** *
   5:Generated_Source\PSoC6/I2C_MPU6050.h **** *  This file provides constants and parameter values for the I2C component.
   6:Generated_Source\PSoC6/I2C_MPU6050.h **** *
   7:Generated_Source\PSoC6/I2C_MPU6050.h **** ********************************************************************************
   8:Generated_Source\PSoC6/I2C_MPU6050.h **** * \copyright
   9:Generated_Source\PSoC6/I2C_MPU6050.h **** * Copyright 2016-2017, Cypress Semiconductor Corporation. All rights reserved.
  10:Generated_Source\PSoC6/I2C_MPU6050.h **** * You may use this file only in accordance with the license, terms, conditions,
  11:Generated_Source\PSoC6/I2C_MPU6050.h **** * disclaimers, and limitations in the end user license agreement accompanying
  12:Generated_Source\PSoC6/I2C_MPU6050.h **** * the software package with which this file was provided.
  13:Generated_Source\PSoC6/I2C_MPU6050.h **** *******************************************************************************/
  14:Generated_Source\PSoC6/I2C_MPU6050.h **** 
ARM GAS  C:\Users\Vishwas\AppData\Local\Temp\ccA32DKj.s 			page 3


  15:Generated_Source\PSoC6/I2C_MPU6050.h **** #if !defined(I2C_MPU6050_CY_SCB_I2C_PDL_H)
  16:Generated_Source\PSoC6/I2C_MPU6050.h **** #define I2C_MPU6050_CY_SCB_I2C_PDL_H
  17:Generated_Source\PSoC6/I2C_MPU6050.h **** 
  18:Generated_Source\PSoC6/I2C_MPU6050.h **** #include "cyfitter.h"
  19:Generated_Source\PSoC6/I2C_MPU6050.h **** #include "scb/cy_scb_i2c.h"
  20:Generated_Source\PSoC6/I2C_MPU6050.h **** 
  21:Generated_Source\PSoC6/I2C_MPU6050.h **** #if defined(__cplusplus)
  22:Generated_Source\PSoC6/I2C_MPU6050.h **** extern "C" {
  23:Generated_Source\PSoC6/I2C_MPU6050.h **** #endif
  24:Generated_Source\PSoC6/I2C_MPU6050.h **** 
  25:Generated_Source\PSoC6/I2C_MPU6050.h **** /***************************************
  26:Generated_Source\PSoC6/I2C_MPU6050.h **** *   Initial Parameter Constants
  27:Generated_Source\PSoC6/I2C_MPU6050.h **** ****************************************/
  28:Generated_Source\PSoC6/I2C_MPU6050.h **** 
  29:Generated_Source\PSoC6/I2C_MPU6050.h **** #define I2C_MPU6050_MODE               (0x2U)
  30:Generated_Source\PSoC6/I2C_MPU6050.h **** #define I2C_MPU6050_MODE_SLAVE_MASK    (0x1U)
  31:Generated_Source\PSoC6/I2C_MPU6050.h **** #define I2C_MPU6050_MODE_MASTER_MASK   (0x2U)
  32:Generated_Source\PSoC6/I2C_MPU6050.h **** 
  33:Generated_Source\PSoC6/I2C_MPU6050.h **** #define I2C_MPU6050_ENABLE_SLAVE       (0UL != (I2C_MPU6050_MODE & I2C_MPU6050_MODE_SLAVE_MASK))
  34:Generated_Source\PSoC6/I2C_MPU6050.h **** #define I2C_MPU6050_ENABLE_MASTER      (0UL != (I2C_MPU6050_MODE & I2C_MPU6050_MODE_MASTER_MASK))
  35:Generated_Source\PSoC6/I2C_MPU6050.h **** #define I2C_MPU6050_MANUAL_SCL_CONTROL (0U)
  36:Generated_Source\PSoC6/I2C_MPU6050.h **** 
  37:Generated_Source\PSoC6/I2C_MPU6050.h **** 
  38:Generated_Source\PSoC6/I2C_MPU6050.h **** /***************************************
  39:Generated_Source\PSoC6/I2C_MPU6050.h **** *        Function Prototypes
  40:Generated_Source\PSoC6/I2C_MPU6050.h **** ***************************************/
  41:Generated_Source\PSoC6/I2C_MPU6050.h **** /**
  42:Generated_Source\PSoC6/I2C_MPU6050.h **** * \addtogroup group_general
  43:Generated_Source\PSoC6/I2C_MPU6050.h **** * @{
  44:Generated_Source\PSoC6/I2C_MPU6050.h **** */
  45:Generated_Source\PSoC6/I2C_MPU6050.h **** /* Component only APIs. */
  46:Generated_Source\PSoC6/I2C_MPU6050.h **** void I2C_MPU6050_Start(void);
  47:Generated_Source\PSoC6/I2C_MPU6050.h **** 
  48:Generated_Source\PSoC6/I2C_MPU6050.h **** /* Basic functions. */
  49:Generated_Source\PSoC6/I2C_MPU6050.h **** __STATIC_INLINE cy_en_scb_i2c_status_t I2C_MPU6050_Init(cy_stc_scb_i2c_config_t const *config);
  50:Generated_Source\PSoC6/I2C_MPU6050.h **** __STATIC_INLINE void I2C_MPU6050_DeInit (void);
  51:Generated_Source\PSoC6/I2C_MPU6050.h **** __STATIC_INLINE void I2C_MPU6050_Enable (void);
  52:Generated_Source\PSoC6/I2C_MPU6050.h **** __STATIC_INLINE void I2C_MPU6050_Disable(void);
  53:Generated_Source\PSoC6/I2C_MPU6050.h **** 
  54:Generated_Source\PSoC6/I2C_MPU6050.h **** /* Data rate configuration functions. */
  55:Generated_Source\PSoC6/I2C_MPU6050.h **** __STATIC_INLINE uint32_t I2C_MPU6050_SetDataRate(uint32_t dataRateHz, uint32_t scbClockHz);
  56:Generated_Source\PSoC6/I2C_MPU6050.h **** __STATIC_INLINE uint32_t I2C_MPU6050_GetDataRate(uint32_t scbClockHz);
  57:Generated_Source\PSoC6/I2C_MPU6050.h **** 
  58:Generated_Source\PSoC6/I2C_MPU6050.h **** /* Register callbacks. */
  59:Generated_Source\PSoC6/I2C_MPU6050.h **** __STATIC_INLINE void I2C_MPU6050_RegisterEventCallback(cy_cb_scb_i2c_handle_events_t callback);
  60:Generated_Source\PSoC6/I2C_MPU6050.h **** #if (I2C_MPU6050_ENABLE_SLAVE)
  61:Generated_Source\PSoC6/I2C_MPU6050.h **** __STATIC_INLINE void I2C_MPU6050_RegisterAddrCallback (cy_cb_scb_i2c_handle_addr_t callback);
  62:Generated_Source\PSoC6/I2C_MPU6050.h **** #endif /* (I2C_MPU6050_ENABLE_SLAVE) */
  63:Generated_Source\PSoC6/I2C_MPU6050.h **** 
  64:Generated_Source\PSoC6/I2C_MPU6050.h **** /* Configuration functions. */
  65:Generated_Source\PSoC6/I2C_MPU6050.h **** #if (I2C_MPU6050_ENABLE_SLAVE)
  66:Generated_Source\PSoC6/I2C_MPU6050.h **** __STATIC_INLINE void     I2C_MPU6050_SlaveSetAddress(uint8_t addr);
  67:Generated_Source\PSoC6/I2C_MPU6050.h **** __STATIC_INLINE uint32_t I2C_MPU6050_SlaveGetAddress(void);
  68:Generated_Source\PSoC6/I2C_MPU6050.h **** __STATIC_INLINE void     I2C_MPU6050_SlaveSetAddressMask(uint8_t addrMask);
  69:Generated_Source\PSoC6/I2C_MPU6050.h **** __STATIC_INLINE uint32_t I2C_MPU6050_SlaveGetAddressMask(void);
  70:Generated_Source\PSoC6/I2C_MPU6050.h **** #endif /* (I2C_MPU6050_ENABLE_SLAVE) */
  71:Generated_Source\PSoC6/I2C_MPU6050.h **** 
ARM GAS  C:\Users\Vishwas\AppData\Local\Temp\ccA32DKj.s 			page 4


  72:Generated_Source\PSoC6/I2C_MPU6050.h **** #if (I2C_MPU6050_ENABLE_MASTER)
  73:Generated_Source\PSoC6/I2C_MPU6050.h **** __STATIC_INLINE void I2C_MPU6050_MasterSetLowPhaseDutyCycle (uint32_t clockCycles);
  74:Generated_Source\PSoC6/I2C_MPU6050.h **** __STATIC_INLINE void I2C_MPU6050_MasterSetHighPhaseDutyCycle(uint32_t clockCycles);
  75:Generated_Source\PSoC6/I2C_MPU6050.h **** #endif /* (I2C_MPU6050_ENABLE_MASTER) */
  76:Generated_Source\PSoC6/I2C_MPU6050.h **** 
  77:Generated_Source\PSoC6/I2C_MPU6050.h **** /* Bus status. */
  78:Generated_Source\PSoC6/I2C_MPU6050.h **** __STATIC_INLINE bool     I2C_MPU6050_IsBusBusy(void);
  79:Generated_Source\PSoC6/I2C_MPU6050.h **** 
  80:Generated_Source\PSoC6/I2C_MPU6050.h **** /* Slave functions. */
  81:Generated_Source\PSoC6/I2C_MPU6050.h **** #if (I2C_MPU6050_ENABLE_SLAVE)
  82:Generated_Source\PSoC6/I2C_MPU6050.h **** __STATIC_INLINE uint32_t I2C_MPU6050_SlaveGetStatus(void);
  83:Generated_Source\PSoC6/I2C_MPU6050.h **** 
  84:Generated_Source\PSoC6/I2C_MPU6050.h **** __STATIC_INLINE void     I2C_MPU6050_SlaveConfigReadBuf(uint8_t *buffer, uint32_t size);
  85:Generated_Source\PSoC6/I2C_MPU6050.h **** __STATIC_INLINE void     I2C_MPU6050_SlaveAbortRead(void);
  86:Generated_Source\PSoC6/I2C_MPU6050.h **** __STATIC_INLINE uint32_t I2C_MPU6050_SlaveGetReadTransferCount(void);
  87:Generated_Source\PSoC6/I2C_MPU6050.h **** __STATIC_INLINE uint32_t I2C_MPU6050_SlaveClearReadStatus(void);
  88:Generated_Source\PSoC6/I2C_MPU6050.h **** 
  89:Generated_Source\PSoC6/I2C_MPU6050.h **** __STATIC_INLINE void     I2C_MPU6050_SlaveConfigWriteBuf(uint8_t *buffer, uint32_t size);
  90:Generated_Source\PSoC6/I2C_MPU6050.h **** __STATIC_INLINE void     I2C_MPU6050_SlaveAbortWrite(void);
  91:Generated_Source\PSoC6/I2C_MPU6050.h **** __STATIC_INLINE uint32_t I2C_MPU6050_SlaveGetWriteTransferCount(void);
  92:Generated_Source\PSoC6/I2C_MPU6050.h **** __STATIC_INLINE uint32_t I2C_MPU6050_SlaveClearWriteStatus(void);
  93:Generated_Source\PSoC6/I2C_MPU6050.h **** #endif /* (I2C_MPU6050_ENABLE_SLAVE) */
  94:Generated_Source\PSoC6/I2C_MPU6050.h **** 
  95:Generated_Source\PSoC6/I2C_MPU6050.h **** /* Master interrupt processing functions. */
  96:Generated_Source\PSoC6/I2C_MPU6050.h **** #if (I2C_MPU6050_ENABLE_MASTER)
  97:Generated_Source\PSoC6/I2C_MPU6050.h **** __STATIC_INLINE uint32_t I2C_MPU6050_MasterGetStatus(void);
  98:Generated_Source\PSoC6/I2C_MPU6050.h **** 
  99:Generated_Source\PSoC6/I2C_MPU6050.h **** __STATIC_INLINE cy_en_scb_i2c_status_t I2C_MPU6050_MasterRead(cy_stc_scb_i2c_master_xfer_config_t *
 100:Generated_Source\PSoC6/I2C_MPU6050.h **** __STATIC_INLINE void I2C_MPU6050_MasterAbortRead(void);
 101:Generated_Source\PSoC6/I2C_MPU6050.h **** __STATIC_INLINE cy_en_scb_i2c_status_t I2C_MPU6050_MasterWrite(cy_stc_scb_i2c_master_xfer_config_t 
 102:Generated_Source\PSoC6/I2C_MPU6050.h **** __STATIC_INLINE void I2C_MPU6050_MasterAbortWrite(void);
 103:Generated_Source\PSoC6/I2C_MPU6050.h **** __STATIC_INLINE uint32_t I2C_MPU6050_MasterGetTransferCount(void);
 104:Generated_Source\PSoC6/I2C_MPU6050.h **** 
 105:Generated_Source\PSoC6/I2C_MPU6050.h **** /* Master manual processing functions. */
 106:Generated_Source\PSoC6/I2C_MPU6050.h **** __STATIC_INLINE cy_en_scb_i2c_status_t I2C_MPU6050_MasterSendStart(uint32_t address, cy_en_scb_i2c_
 107:Generated_Source\PSoC6/I2C_MPU6050.h **** __STATIC_INLINE cy_en_scb_i2c_status_t I2C_MPU6050_MasterSendReStart(uint32_t address, cy_en_scb_i2
 108:Generated_Source\PSoC6/I2C_MPU6050.h **** __STATIC_INLINE cy_en_scb_i2c_status_t I2C_MPU6050_MasterSendStop(uint32_t timeoutMs);
 109:Generated_Source\PSoC6/I2C_MPU6050.h **** __STATIC_INLINE cy_en_scb_i2c_status_t I2C_MPU6050_MasterReadByte(cy_en_scb_i2c_command_t ackNack, 
 110:Generated_Source\PSoC6/I2C_MPU6050.h **** __STATIC_INLINE cy_en_scb_i2c_status_t I2C_MPU6050_MasterWriteByte(uint8_t byte, uint32_t timeoutMs
 111:Generated_Source\PSoC6/I2C_MPU6050.h **** #endif /* (I2C_MPU6050_ENABLE_MASTER) */
 112:Generated_Source\PSoC6/I2C_MPU6050.h **** 
 113:Generated_Source\PSoC6/I2C_MPU6050.h **** /* Interrupt handler. */
 114:Generated_Source\PSoC6/I2C_MPU6050.h **** __STATIC_INLINE void I2C_MPU6050_Interrupt(void);
 115:Generated_Source\PSoC6/I2C_MPU6050.h **** /** @} group_general */
 116:Generated_Source\PSoC6/I2C_MPU6050.h **** 
 117:Generated_Source\PSoC6/I2C_MPU6050.h **** 
 118:Generated_Source\PSoC6/I2C_MPU6050.h **** /***************************************
 119:Generated_Source\PSoC6/I2C_MPU6050.h **** *    Variables with External Linkage
 120:Generated_Source\PSoC6/I2C_MPU6050.h **** ***************************************/
 121:Generated_Source\PSoC6/I2C_MPU6050.h **** /**
 122:Generated_Source\PSoC6/I2C_MPU6050.h **** * \addtogroup group_globals
 123:Generated_Source\PSoC6/I2C_MPU6050.h **** * @{
 124:Generated_Source\PSoC6/I2C_MPU6050.h **** */
 125:Generated_Source\PSoC6/I2C_MPU6050.h **** extern uint8_t I2C_MPU6050_initVar;
 126:Generated_Source\PSoC6/I2C_MPU6050.h **** extern cy_stc_scb_i2c_config_t const I2C_MPU6050_config;
 127:Generated_Source\PSoC6/I2C_MPU6050.h **** extern cy_stc_scb_i2c_context_t I2C_MPU6050_context;
 128:Generated_Source\PSoC6/I2C_MPU6050.h **** /** @} group_globals */
ARM GAS  C:\Users\Vishwas\AppData\Local\Temp\ccA32DKj.s 			page 5


 129:Generated_Source\PSoC6/I2C_MPU6050.h **** 
 130:Generated_Source\PSoC6/I2C_MPU6050.h **** 
 131:Generated_Source\PSoC6/I2C_MPU6050.h **** /***************************************
 132:Generated_Source\PSoC6/I2C_MPU6050.h **** *         Preprocessor Macros
 133:Generated_Source\PSoC6/I2C_MPU6050.h **** ***************************************/
 134:Generated_Source\PSoC6/I2C_MPU6050.h **** /**
 135:Generated_Source\PSoC6/I2C_MPU6050.h **** * \addtogroup group_macros
 136:Generated_Source\PSoC6/I2C_MPU6050.h **** * @{
 137:Generated_Source\PSoC6/I2C_MPU6050.h **** */
 138:Generated_Source\PSoC6/I2C_MPU6050.h **** /** The pointer to the base address of the SCB instance */
 139:Generated_Source\PSoC6/I2C_MPU6050.h **** #define I2C_MPU6050_HW     ((CySCB_Type *) I2C_MPU6050_SCB__HW)
 140:Generated_Source\PSoC6/I2C_MPU6050.h **** 
 141:Generated_Source\PSoC6/I2C_MPU6050.h **** /** The desired data rate in Hz */
 142:Generated_Source\PSoC6/I2C_MPU6050.h **** #define I2C_MPU6050_DATA_RATE_HZ      (100000U)
 143:Generated_Source\PSoC6/I2C_MPU6050.h **** 
 144:Generated_Source\PSoC6/I2C_MPU6050.h **** /** The frequency of the clock used by the Component in Hz */
 145:Generated_Source\PSoC6/I2C_MPU6050.h **** #define I2C_MPU6050_CLK_FREQ_HZ       (1562500U)
 146:Generated_Source\PSoC6/I2C_MPU6050.h **** 
 147:Generated_Source\PSoC6/I2C_MPU6050.h **** /** The number of Component clocks used by the master to generate the SCL
 148:Generated_Source\PSoC6/I2C_MPU6050.h **** * low phase. This number is calculated by GUI based on the selected data rate.
 149:Generated_Source\PSoC6/I2C_MPU6050.h **** */
 150:Generated_Source\PSoC6/I2C_MPU6050.h **** #define I2C_MPU6050_LOW_PHASE_DUTY_CYCLE   (8U)
 151:Generated_Source\PSoC6/I2C_MPU6050.h **** 
 152:Generated_Source\PSoC6/I2C_MPU6050.h **** /** The number of Component clocks used by the master to generate the SCL
 153:Generated_Source\PSoC6/I2C_MPU6050.h **** * high phase. This number is calculated by GUI based on the selected data rate.
 154:Generated_Source\PSoC6/I2C_MPU6050.h **** */
 155:Generated_Source\PSoC6/I2C_MPU6050.h **** #define I2C_MPU6050_HIGH_PHASE_DUTY_CYCLE  (8U)
 156:Generated_Source\PSoC6/I2C_MPU6050.h **** /** @} group_macros */
 157:Generated_Source\PSoC6/I2C_MPU6050.h **** 
 158:Generated_Source\PSoC6/I2C_MPU6050.h **** 
 159:Generated_Source\PSoC6/I2C_MPU6050.h **** /***************************************
 160:Generated_Source\PSoC6/I2C_MPU6050.h **** *    In-line Function Implementation
 161:Generated_Source\PSoC6/I2C_MPU6050.h **** ***************************************/
 162:Generated_Source\PSoC6/I2C_MPU6050.h **** 
 163:Generated_Source\PSoC6/I2C_MPU6050.h **** /*******************************************************************************
 164:Generated_Source\PSoC6/I2C_MPU6050.h **** * Function Name: I2C_MPU6050_Init
 165:Generated_Source\PSoC6/I2C_MPU6050.h **** ****************************************************************************//**
 166:Generated_Source\PSoC6/I2C_MPU6050.h **** *
 167:Generated_Source\PSoC6/I2C_MPU6050.h **** * Invokes the Cy_SCB_I2C_Init() PDL driver function.
 168:Generated_Source\PSoC6/I2C_MPU6050.h **** *
 169:Generated_Source\PSoC6/I2C_MPU6050.h **** *******************************************************************************/
 170:Generated_Source\PSoC6/I2C_MPU6050.h **** __STATIC_INLINE cy_en_scb_i2c_status_t I2C_MPU6050_Init(cy_stc_scb_i2c_config_t const *config)
 171:Generated_Source\PSoC6/I2C_MPU6050.h **** {
 172:Generated_Source\PSoC6/I2C_MPU6050.h ****     return Cy_SCB_I2C_Init(I2C_MPU6050_HW, config, &I2C_MPU6050_context);
 173:Generated_Source\PSoC6/I2C_MPU6050.h **** }
 174:Generated_Source\PSoC6/I2C_MPU6050.h **** 
 175:Generated_Source\PSoC6/I2C_MPU6050.h **** 
 176:Generated_Source\PSoC6/I2C_MPU6050.h **** /*******************************************************************************
 177:Generated_Source\PSoC6/I2C_MPU6050.h **** *  Function Name: I2C_MPU6050_DeInit
 178:Generated_Source\PSoC6/I2C_MPU6050.h **** ****************************************************************************//**
 179:Generated_Source\PSoC6/I2C_MPU6050.h **** *
 180:Generated_Source\PSoC6/I2C_MPU6050.h **** * Invokes the Cy_SCB_I2C_DeInit() PDL driver function.
 181:Generated_Source\PSoC6/I2C_MPU6050.h **** *
 182:Generated_Source\PSoC6/I2C_MPU6050.h **** *******************************************************************************/
 183:Generated_Source\PSoC6/I2C_MPU6050.h **** __STATIC_INLINE void I2C_MPU6050_DeInit(void)
 184:Generated_Source\PSoC6/I2C_MPU6050.h **** {
 185:Generated_Source\PSoC6/I2C_MPU6050.h ****     Cy_SCB_I2C_DeInit(I2C_MPU6050_HW);
ARM GAS  C:\Users\Vishwas\AppData\Local\Temp\ccA32DKj.s 			page 6


 186:Generated_Source\PSoC6/I2C_MPU6050.h **** }
 187:Generated_Source\PSoC6/I2C_MPU6050.h **** 
 188:Generated_Source\PSoC6/I2C_MPU6050.h **** 
 189:Generated_Source\PSoC6/I2C_MPU6050.h **** /*******************************************************************************
 190:Generated_Source\PSoC6/I2C_MPU6050.h **** * Function Name: I2C_MPU6050_Enable
 191:Generated_Source\PSoC6/I2C_MPU6050.h **** ****************************************************************************//**
 192:Generated_Source\PSoC6/I2C_MPU6050.h **** *
 193:Generated_Source\PSoC6/I2C_MPU6050.h **** * Invokes the Cy_SCB_I2C_Enable() PDL driver function.
 194:Generated_Source\PSoC6/I2C_MPU6050.h **** *
 195:Generated_Source\PSoC6/I2C_MPU6050.h **** *******************************************************************************/
 196:Generated_Source\PSoC6/I2C_MPU6050.h **** __STATIC_INLINE void I2C_MPU6050_Enable(void)
 197:Generated_Source\PSoC6/I2C_MPU6050.h **** {
 198:Generated_Source\PSoC6/I2C_MPU6050.h ****     Cy_SCB_I2C_Enable(I2C_MPU6050_HW);
 199:Generated_Source\PSoC6/I2C_MPU6050.h **** }
 200:Generated_Source\PSoC6/I2C_MPU6050.h **** 
 201:Generated_Source\PSoC6/I2C_MPU6050.h **** 
 202:Generated_Source\PSoC6/I2C_MPU6050.h **** /*******************************************************************************
 203:Generated_Source\PSoC6/I2C_MPU6050.h **** * Function Name: I2C_MPU6050_Disable
 204:Generated_Source\PSoC6/I2C_MPU6050.h **** ****************************************************************************//**
 205:Generated_Source\PSoC6/I2C_MPU6050.h **** *
 206:Generated_Source\PSoC6/I2C_MPU6050.h **** * Invokes the Cy_SCB_I2C_Disable() PDL driver function.
 207:Generated_Source\PSoC6/I2C_MPU6050.h **** *
 208:Generated_Source\PSoC6/I2C_MPU6050.h **** *******************************************************************************/
 209:Generated_Source\PSoC6/I2C_MPU6050.h **** __STATIC_INLINE void I2C_MPU6050_Disable(void)
 210:Generated_Source\PSoC6/I2C_MPU6050.h **** {
 211:Generated_Source\PSoC6/I2C_MPU6050.h ****     Cy_SCB_I2C_Disable(I2C_MPU6050_HW, &I2C_MPU6050_context);
 212:Generated_Source\PSoC6/I2C_MPU6050.h **** }
 213:Generated_Source\PSoC6/I2C_MPU6050.h **** 
 214:Generated_Source\PSoC6/I2C_MPU6050.h **** 
 215:Generated_Source\PSoC6/I2C_MPU6050.h **** /*******************************************************************************
 216:Generated_Source\PSoC6/I2C_MPU6050.h **** * Function Name: I2C_MPU6050_SetDataRate
 217:Generated_Source\PSoC6/I2C_MPU6050.h **** ****************************************************************************//**
 218:Generated_Source\PSoC6/I2C_MPU6050.h **** *
 219:Generated_Source\PSoC6/I2C_MPU6050.h **** * Invokes the Cy_SCB_I2C_SetDataRate() PDL driver function.
 220:Generated_Source\PSoC6/I2C_MPU6050.h **** *
 221:Generated_Source\PSoC6/I2C_MPU6050.h **** *******************************************************************************/
 222:Generated_Source\PSoC6/I2C_MPU6050.h **** __STATIC_INLINE uint32_t I2C_MPU6050_SetDataRate(uint32_t dataRateHz, uint32_t scbClockHz)
 223:Generated_Source\PSoC6/I2C_MPU6050.h **** {
 224:Generated_Source\PSoC6/I2C_MPU6050.h ****     return Cy_SCB_I2C_SetDataRate(I2C_MPU6050_HW, dataRateHz, scbClockHz);
 225:Generated_Source\PSoC6/I2C_MPU6050.h **** }
 226:Generated_Source\PSoC6/I2C_MPU6050.h **** 
 227:Generated_Source\PSoC6/I2C_MPU6050.h **** 
 228:Generated_Source\PSoC6/I2C_MPU6050.h **** /*******************************************************************************
 229:Generated_Source\PSoC6/I2C_MPU6050.h **** * Function Name: I2C_MPU6050_GetDataRate
 230:Generated_Source\PSoC6/I2C_MPU6050.h **** ****************************************************************************//**
 231:Generated_Source\PSoC6/I2C_MPU6050.h **** *
 232:Generated_Source\PSoC6/I2C_MPU6050.h **** * Invokes the Cy_SCB_I2C_GetDataRate() PDL driver function.
 233:Generated_Source\PSoC6/I2C_MPU6050.h **** *
 234:Generated_Source\PSoC6/I2C_MPU6050.h **** *******************************************************************************/
 235:Generated_Source\PSoC6/I2C_MPU6050.h **** __STATIC_INLINE uint32_t I2C_MPU6050_GetDataRate(uint32_t scbClockHz)
 236:Generated_Source\PSoC6/I2C_MPU6050.h **** {
 237:Generated_Source\PSoC6/I2C_MPU6050.h ****     return Cy_SCB_I2C_GetDataRate(I2C_MPU6050_HW, scbClockHz);
 238:Generated_Source\PSoC6/I2C_MPU6050.h **** }
 239:Generated_Source\PSoC6/I2C_MPU6050.h **** 
 240:Generated_Source\PSoC6/I2C_MPU6050.h **** 
 241:Generated_Source\PSoC6/I2C_MPU6050.h **** /*******************************************************************************
 242:Generated_Source\PSoC6/I2C_MPU6050.h **** * Function Name: I2C_MPU6050_RegisterEventCallback
ARM GAS  C:\Users\Vishwas\AppData\Local\Temp\ccA32DKj.s 			page 7


 243:Generated_Source\PSoC6/I2C_MPU6050.h **** ****************************************************************************//**
 244:Generated_Source\PSoC6/I2C_MPU6050.h **** *
 245:Generated_Source\PSoC6/I2C_MPU6050.h **** * Invokes the Cy_SCB_I2C_RegisterEventCallback() PDL driver function.
 246:Generated_Source\PSoC6/I2C_MPU6050.h **** *
 247:Generated_Source\PSoC6/I2C_MPU6050.h **** *******************************************************************************/
 248:Generated_Source\PSoC6/I2C_MPU6050.h **** __STATIC_INLINE void I2C_MPU6050_RegisterEventCallback(cy_cb_scb_i2c_handle_events_t callback)
 249:Generated_Source\PSoC6/I2C_MPU6050.h **** {
 250:Generated_Source\PSoC6/I2C_MPU6050.h ****     Cy_SCB_I2C_RegisterEventCallback(I2C_MPU6050_HW, callback, &I2C_MPU6050_context);
 251:Generated_Source\PSoC6/I2C_MPU6050.h **** }
 252:Generated_Source\PSoC6/I2C_MPU6050.h **** 
 253:Generated_Source\PSoC6/I2C_MPU6050.h **** 
 254:Generated_Source\PSoC6/I2C_MPU6050.h **** #if (I2C_MPU6050_ENABLE_SLAVE)
 255:Generated_Source\PSoC6/I2C_MPU6050.h **** /*******************************************************************************
 256:Generated_Source\PSoC6/I2C_MPU6050.h **** * Function Name: I2C_MPU6050_RegisterAddrCallback
 257:Generated_Source\PSoC6/I2C_MPU6050.h **** ****************************************************************************//**
 258:Generated_Source\PSoC6/I2C_MPU6050.h **** *
 259:Generated_Source\PSoC6/I2C_MPU6050.h **** * Invokes the Cy_SCB_I2C_RegisterAddrCallback() PDL driver function.
 260:Generated_Source\PSoC6/I2C_MPU6050.h **** *
 261:Generated_Source\PSoC6/I2C_MPU6050.h **** *******************************************************************************/
 262:Generated_Source\PSoC6/I2C_MPU6050.h **** __STATIC_INLINE void I2C_MPU6050_RegisterAddrCallback(cy_cb_scb_i2c_handle_addr_t callback)
 263:Generated_Source\PSoC6/I2C_MPU6050.h **** {
 264:Generated_Source\PSoC6/I2C_MPU6050.h ****     Cy_SCB_I2C_RegisterAddrCallback(I2C_MPU6050_HW, callback, &I2C_MPU6050_context);
 265:Generated_Source\PSoC6/I2C_MPU6050.h **** }
 266:Generated_Source\PSoC6/I2C_MPU6050.h **** #endif /* (I2C_MPU6050_ENABLE_SLAVE) */
 267:Generated_Source\PSoC6/I2C_MPU6050.h **** 
 268:Generated_Source\PSoC6/I2C_MPU6050.h **** 
 269:Generated_Source\PSoC6/I2C_MPU6050.h **** /*******************************************************************************
 270:Generated_Source\PSoC6/I2C_MPU6050.h **** * Function Name: I2C_MPU6050_IsBusBusy
 271:Generated_Source\PSoC6/I2C_MPU6050.h **** ****************************************************************************//**
 272:Generated_Source\PSoC6/I2C_MPU6050.h **** *
 273:Generated_Source\PSoC6/I2C_MPU6050.h **** * Invokes the Cy_SCB_I2C_IsBusBusy() PDL driver function.
 274:Generated_Source\PSoC6/I2C_MPU6050.h **** *
 275:Generated_Source\PSoC6/I2C_MPU6050.h **** *******************************************************************************/
 276:Generated_Source\PSoC6/I2C_MPU6050.h **** __STATIC_INLINE bool I2C_MPU6050_IsBusBusy(void)
 277:Generated_Source\PSoC6/I2C_MPU6050.h **** {
 278:Generated_Source\PSoC6/I2C_MPU6050.h ****     return Cy_SCB_I2C_IsBusBusy(I2C_MPU6050_HW);
 279:Generated_Source\PSoC6/I2C_MPU6050.h **** }
 280:Generated_Source\PSoC6/I2C_MPU6050.h **** 
 281:Generated_Source\PSoC6/I2C_MPU6050.h **** 
 282:Generated_Source\PSoC6/I2C_MPU6050.h **** #if (I2C_MPU6050_ENABLE_SLAVE)
 283:Generated_Source\PSoC6/I2C_MPU6050.h **** /*******************************************************************************
 284:Generated_Source\PSoC6/I2C_MPU6050.h **** * Function Name: I2C_MPU6050_SlaveSetAddress
 285:Generated_Source\PSoC6/I2C_MPU6050.h **** ****************************************************************************//**
 286:Generated_Source\PSoC6/I2C_MPU6050.h **** *
 287:Generated_Source\PSoC6/I2C_MPU6050.h **** * Invokes the Cy_SCB_I2C_SlaveGetAddress() PDL driver function.
 288:Generated_Source\PSoC6/I2C_MPU6050.h **** *
 289:Generated_Source\PSoC6/I2C_MPU6050.h **** *******************************************************************************/
 290:Generated_Source\PSoC6/I2C_MPU6050.h **** __STATIC_INLINE void I2C_MPU6050_SlaveSetAddress(uint8_t addr)
 291:Generated_Source\PSoC6/I2C_MPU6050.h **** {
 292:Generated_Source\PSoC6/I2C_MPU6050.h ****     Cy_SCB_I2C_SlaveSetAddress(I2C_MPU6050_HW, addr);
 293:Generated_Source\PSoC6/I2C_MPU6050.h **** }
 294:Generated_Source\PSoC6/I2C_MPU6050.h **** 
 295:Generated_Source\PSoC6/I2C_MPU6050.h **** 
 296:Generated_Source\PSoC6/I2C_MPU6050.h **** /*******************************************************************************
 297:Generated_Source\PSoC6/I2C_MPU6050.h **** * Function Name: I2C_MPU6050_SlaveGetAddress
 298:Generated_Source\PSoC6/I2C_MPU6050.h **** ****************************************************************************//**
 299:Generated_Source\PSoC6/I2C_MPU6050.h **** *
ARM GAS  C:\Users\Vishwas\AppData\Local\Temp\ccA32DKj.s 			page 8


 300:Generated_Source\PSoC6/I2C_MPU6050.h **** * Invokes the Cy_SCB_I2C_SlaveGetAddress() PDL driver function.
 301:Generated_Source\PSoC6/I2C_MPU6050.h **** *
 302:Generated_Source\PSoC6/I2C_MPU6050.h **** *******************************************************************************/
 303:Generated_Source\PSoC6/I2C_MPU6050.h **** __STATIC_INLINE uint32_t I2C_MPU6050_SlaveGetAddress(void)
 304:Generated_Source\PSoC6/I2C_MPU6050.h **** {
 305:Generated_Source\PSoC6/I2C_MPU6050.h ****     return Cy_SCB_I2C_SlaveGetAddress(I2C_MPU6050_HW);
 306:Generated_Source\PSoC6/I2C_MPU6050.h **** }
 307:Generated_Source\PSoC6/I2C_MPU6050.h **** 
 308:Generated_Source\PSoC6/I2C_MPU6050.h **** 
 309:Generated_Source\PSoC6/I2C_MPU6050.h **** /*******************************************************************************
 310:Generated_Source\PSoC6/I2C_MPU6050.h **** * Function Name: I2C_MPU6050_SlaveSetAddressMask
 311:Generated_Source\PSoC6/I2C_MPU6050.h **** ****************************************************************************//**
 312:Generated_Source\PSoC6/I2C_MPU6050.h **** *
 313:Generated_Source\PSoC6/I2C_MPU6050.h **** * Invokes the Cy_SCB_I2C_SlaveSetAddressMask() PDL driver function.
 314:Generated_Source\PSoC6/I2C_MPU6050.h **** *
 315:Generated_Source\PSoC6/I2C_MPU6050.h **** *******************************************************************************/
 316:Generated_Source\PSoC6/I2C_MPU6050.h **** __STATIC_INLINE void I2C_MPU6050_SlaveSetAddressMask(uint8_t addrMask)
 317:Generated_Source\PSoC6/I2C_MPU6050.h **** {
 318:Generated_Source\PSoC6/I2C_MPU6050.h ****     Cy_SCB_I2C_SlaveSetAddressMask(I2C_MPU6050_HW, addrMask);
 319:Generated_Source\PSoC6/I2C_MPU6050.h **** }
 320:Generated_Source\PSoC6/I2C_MPU6050.h **** 
 321:Generated_Source\PSoC6/I2C_MPU6050.h **** 
 322:Generated_Source\PSoC6/I2C_MPU6050.h **** /*******************************************************************************
 323:Generated_Source\PSoC6/I2C_MPU6050.h **** * Function Name: I2C_MPU6050_SlaveGetAddressMask
 324:Generated_Source\PSoC6/I2C_MPU6050.h **** ****************************************************************************//**
 325:Generated_Source\PSoC6/I2C_MPU6050.h **** *
 326:Generated_Source\PSoC6/I2C_MPU6050.h **** * Invokes the Cy_SCB_I2C_SlaveGetAddressMask() PDL driver function.
 327:Generated_Source\PSoC6/I2C_MPU6050.h **** *
 328:Generated_Source\PSoC6/I2C_MPU6050.h **** *******************************************************************************/
 329:Generated_Source\PSoC6/I2C_MPU6050.h **** __STATIC_INLINE uint32_t I2C_MPU6050_SlaveGetAddressMask(void)
 330:Generated_Source\PSoC6/I2C_MPU6050.h **** {
 331:Generated_Source\PSoC6/I2C_MPU6050.h ****     return Cy_SCB_I2C_SlaveGetAddressMask(I2C_MPU6050_HW);
 332:Generated_Source\PSoC6/I2C_MPU6050.h **** }
 333:Generated_Source\PSoC6/I2C_MPU6050.h **** #endif /* (I2C_MPU6050_ENABLE_SLAVE) */
 334:Generated_Source\PSoC6/I2C_MPU6050.h **** 
 335:Generated_Source\PSoC6/I2C_MPU6050.h **** #if (I2C_MPU6050_ENABLE_MASTER)
 336:Generated_Source\PSoC6/I2C_MPU6050.h **** /*******************************************************************************
 337:Generated_Source\PSoC6/I2C_MPU6050.h **** * Function Name: I2C_MPU6050_MasterSetLowPhaseDutyCycle
 338:Generated_Source\PSoC6/I2C_MPU6050.h **** ****************************************************************************//**
 339:Generated_Source\PSoC6/I2C_MPU6050.h **** *
 340:Generated_Source\PSoC6/I2C_MPU6050.h **** * Invokes the Cy_SCB_I2C_MasterSetLowPhaseDutyCycle() PDL driver function.
 341:Generated_Source\PSoC6/I2C_MPU6050.h **** *
 342:Generated_Source\PSoC6/I2C_MPU6050.h **** *******************************************************************************/
 343:Generated_Source\PSoC6/I2C_MPU6050.h **** __STATIC_INLINE void I2C_MPU6050_MasterSetLowPhaseDutyCycle(uint32_t clockCycles)
 344:Generated_Source\PSoC6/I2C_MPU6050.h **** {
 345:Generated_Source\PSoC6/I2C_MPU6050.h ****     Cy_SCB_I2C_MasterSetLowPhaseDutyCycle(I2C_MPU6050_HW, clockCycles);
 346:Generated_Source\PSoC6/I2C_MPU6050.h **** }
 347:Generated_Source\PSoC6/I2C_MPU6050.h **** 
 348:Generated_Source\PSoC6/I2C_MPU6050.h **** 
 349:Generated_Source\PSoC6/I2C_MPU6050.h **** /*******************************************************************************
 350:Generated_Source\PSoC6/I2C_MPU6050.h **** * Function Name: I2C_MPU6050_MasterSetHighPhaseDutyCycle
 351:Generated_Source\PSoC6/I2C_MPU6050.h **** ****************************************************************************//**
 352:Generated_Source\PSoC6/I2C_MPU6050.h **** *
 353:Generated_Source\PSoC6/I2C_MPU6050.h **** * Invokes the Cy_SCB_I2C_MasterSetHighPhaseDutyCycle() PDL driver function.
 354:Generated_Source\PSoC6/I2C_MPU6050.h **** *
 355:Generated_Source\PSoC6/I2C_MPU6050.h **** *******************************************************************************/
 356:Generated_Source\PSoC6/I2C_MPU6050.h **** __STATIC_INLINE void I2C_MPU6050_MasterSetHighPhaseDutyCycle(uint32_t clockCycles)
ARM GAS  C:\Users\Vishwas\AppData\Local\Temp\ccA32DKj.s 			page 9


 357:Generated_Source\PSoC6/I2C_MPU6050.h **** {
 358:Generated_Source\PSoC6/I2C_MPU6050.h ****     Cy_SCB_I2C_MasterSetHighPhaseDutyCycle(I2C_MPU6050_HW, clockCycles);
 359:Generated_Source\PSoC6/I2C_MPU6050.h **** }
 360:Generated_Source\PSoC6/I2C_MPU6050.h **** #endif /* (I2C_MPU6050_ENABLE_MASTER) */
 361:Generated_Source\PSoC6/I2C_MPU6050.h **** 
 362:Generated_Source\PSoC6/I2C_MPU6050.h **** 
 363:Generated_Source\PSoC6/I2C_MPU6050.h **** #if (I2C_MPU6050_ENABLE_SLAVE)
 364:Generated_Source\PSoC6/I2C_MPU6050.h **** /*******************************************************************************
 365:Generated_Source\PSoC6/I2C_MPU6050.h **** * Function Name: I2C_MPU6050_SlaveGetStatus
 366:Generated_Source\PSoC6/I2C_MPU6050.h **** ****************************************************************************//**
 367:Generated_Source\PSoC6/I2C_MPU6050.h **** *
 368:Generated_Source\PSoC6/I2C_MPU6050.h **** * Invokes the Cy_SCB_I2C_SlaveGetStatus() PDL driver function.
 369:Generated_Source\PSoC6/I2C_MPU6050.h **** *
 370:Generated_Source\PSoC6/I2C_MPU6050.h **** *******************************************************************************/
 371:Generated_Source\PSoC6/I2C_MPU6050.h **** __STATIC_INLINE uint32_t I2C_MPU6050_SlaveGetStatus(void)
 372:Generated_Source\PSoC6/I2C_MPU6050.h **** {
 373:Generated_Source\PSoC6/I2C_MPU6050.h ****     return Cy_SCB_I2C_SlaveGetStatus(I2C_MPU6050_HW, &I2C_MPU6050_context);
 374:Generated_Source\PSoC6/I2C_MPU6050.h **** }
 375:Generated_Source\PSoC6/I2C_MPU6050.h **** 
 376:Generated_Source\PSoC6/I2C_MPU6050.h **** 
 377:Generated_Source\PSoC6/I2C_MPU6050.h **** /*******************************************************************************
 378:Generated_Source\PSoC6/I2C_MPU6050.h **** * Function Name: I2C_MPU6050_SlaveConfigReadBuf
 379:Generated_Source\PSoC6/I2C_MPU6050.h **** ****************************************************************************//**
 380:Generated_Source\PSoC6/I2C_MPU6050.h **** *
 381:Generated_Source\PSoC6/I2C_MPU6050.h **** * Invokes the Cy_SCB_I2C_SlaveConfigReadBuf() PDL driver function.
 382:Generated_Source\PSoC6/I2C_MPU6050.h **** *
 383:Generated_Source\PSoC6/I2C_MPU6050.h **** *******************************************************************************/
 384:Generated_Source\PSoC6/I2C_MPU6050.h **** __STATIC_INLINE void I2C_MPU6050_SlaveConfigReadBuf(uint8_t *buffer, uint32_t size)
 385:Generated_Source\PSoC6/I2C_MPU6050.h **** {
 386:Generated_Source\PSoC6/I2C_MPU6050.h ****     Cy_SCB_I2C_SlaveConfigReadBuf(I2C_MPU6050_HW, buffer, size, &I2C_MPU6050_context);
 387:Generated_Source\PSoC6/I2C_MPU6050.h **** }
 388:Generated_Source\PSoC6/I2C_MPU6050.h **** 
 389:Generated_Source\PSoC6/I2C_MPU6050.h **** 
 390:Generated_Source\PSoC6/I2C_MPU6050.h **** /*******************************************************************************
 391:Generated_Source\PSoC6/I2C_MPU6050.h **** * Function Name: I2C_MPU6050_SlaveAbortRead
 392:Generated_Source\PSoC6/I2C_MPU6050.h **** ****************************************************************************//**
 393:Generated_Source\PSoC6/I2C_MPU6050.h **** *
 394:Generated_Source\PSoC6/I2C_MPU6050.h **** * Invokes the Cy_SCB_I2C_SlaveAbortRead() PDL driver function.
 395:Generated_Source\PSoC6/I2C_MPU6050.h **** *
 396:Generated_Source\PSoC6/I2C_MPU6050.h **** *******************************************************************************/
 397:Generated_Source\PSoC6/I2C_MPU6050.h **** __STATIC_INLINE void I2C_MPU6050_SlaveAbortRead(void)
 398:Generated_Source\PSoC6/I2C_MPU6050.h **** {
 399:Generated_Source\PSoC6/I2C_MPU6050.h ****     Cy_SCB_I2C_SlaveAbortRead(I2C_MPU6050_HW, &I2C_MPU6050_context);
 400:Generated_Source\PSoC6/I2C_MPU6050.h **** }
 401:Generated_Source\PSoC6/I2C_MPU6050.h **** 
 402:Generated_Source\PSoC6/I2C_MPU6050.h **** 
 403:Generated_Source\PSoC6/I2C_MPU6050.h **** /*******************************************************************************
 404:Generated_Source\PSoC6/I2C_MPU6050.h **** * Function Name: I2C_MPU6050_SlaveGetReadTransferCount
 405:Generated_Source\PSoC6/I2C_MPU6050.h **** ****************************************************************************//**
 406:Generated_Source\PSoC6/I2C_MPU6050.h **** *
 407:Generated_Source\PSoC6/I2C_MPU6050.h **** * Invokes the Cy_SCB_I2C_SlaveGetReadTransferCount() PDL driver function.
 408:Generated_Source\PSoC6/I2C_MPU6050.h **** *
 409:Generated_Source\PSoC6/I2C_MPU6050.h **** *******************************************************************************/
 410:Generated_Source\PSoC6/I2C_MPU6050.h **** __STATIC_INLINE uint32_t I2C_MPU6050_SlaveGetReadTransferCount(void)
 411:Generated_Source\PSoC6/I2C_MPU6050.h **** {
 412:Generated_Source\PSoC6/I2C_MPU6050.h ****     return Cy_SCB_I2C_SlaveGetReadTransferCount(I2C_MPU6050_HW, &I2C_MPU6050_context);
 413:Generated_Source\PSoC6/I2C_MPU6050.h **** }
ARM GAS  C:\Users\Vishwas\AppData\Local\Temp\ccA32DKj.s 			page 10


 414:Generated_Source\PSoC6/I2C_MPU6050.h **** 
 415:Generated_Source\PSoC6/I2C_MPU6050.h **** 
 416:Generated_Source\PSoC6/I2C_MPU6050.h **** /*******************************************************************************
 417:Generated_Source\PSoC6/I2C_MPU6050.h **** * Function Name: I2C_MPU6050_SlaveClearReadStatus
 418:Generated_Source\PSoC6/I2C_MPU6050.h **** ****************************************************************************//**
 419:Generated_Source\PSoC6/I2C_MPU6050.h **** *
 420:Generated_Source\PSoC6/I2C_MPU6050.h **** * Invokes the Cy_SCB_I2C_SlaveClearReadStatus() PDL driver function.
 421:Generated_Source\PSoC6/I2C_MPU6050.h **** *
 422:Generated_Source\PSoC6/I2C_MPU6050.h **** *******************************************************************************/
 423:Generated_Source\PSoC6/I2C_MPU6050.h **** __STATIC_INLINE uint32_t I2C_MPU6050_SlaveClearReadStatus(void)
 424:Generated_Source\PSoC6/I2C_MPU6050.h **** {
 425:Generated_Source\PSoC6/I2C_MPU6050.h ****     return Cy_SCB_I2C_SlaveClearReadStatus(I2C_MPU6050_HW, &I2C_MPU6050_context);
 426:Generated_Source\PSoC6/I2C_MPU6050.h **** }
 427:Generated_Source\PSoC6/I2C_MPU6050.h **** 
 428:Generated_Source\PSoC6/I2C_MPU6050.h **** 
 429:Generated_Source\PSoC6/I2C_MPU6050.h **** /*******************************************************************************
 430:Generated_Source\PSoC6/I2C_MPU6050.h **** * Function Name: I2C_MPU6050_SlaveConfigWriteBuf
 431:Generated_Source\PSoC6/I2C_MPU6050.h **** ****************************************************************************//**
 432:Generated_Source\PSoC6/I2C_MPU6050.h **** *
 433:Generated_Source\PSoC6/I2C_MPU6050.h **** * Invokes the Cy_SCB_I2C_SlaveConfigWriteBuf() PDL driver function.
 434:Generated_Source\PSoC6/I2C_MPU6050.h **** *
 435:Generated_Source\PSoC6/I2C_MPU6050.h **** *******************************************************************************/
 436:Generated_Source\PSoC6/I2C_MPU6050.h **** __STATIC_INLINE void I2C_MPU6050_SlaveConfigWriteBuf(uint8_t *buffer, uint32_t size)
 437:Generated_Source\PSoC6/I2C_MPU6050.h **** {
 438:Generated_Source\PSoC6/I2C_MPU6050.h ****     Cy_SCB_I2C_SlaveConfigWriteBuf(I2C_MPU6050_HW, buffer, size, &I2C_MPU6050_context);
 439:Generated_Source\PSoC6/I2C_MPU6050.h **** }
 440:Generated_Source\PSoC6/I2C_MPU6050.h **** 
 441:Generated_Source\PSoC6/I2C_MPU6050.h **** 
 442:Generated_Source\PSoC6/I2C_MPU6050.h **** /*******************************************************************************
 443:Generated_Source\PSoC6/I2C_MPU6050.h **** * Function Name: I2C_MPU6050_SlaveAbortWrite
 444:Generated_Source\PSoC6/I2C_MPU6050.h **** ****************************************************************************//**
 445:Generated_Source\PSoC6/I2C_MPU6050.h **** *
 446:Generated_Source\PSoC6/I2C_MPU6050.h **** * Invokes the Cy_SCB_I2C_SlaveAbortWrite() PDL driver function.
 447:Generated_Source\PSoC6/I2C_MPU6050.h **** *
 448:Generated_Source\PSoC6/I2C_MPU6050.h **** *******************************************************************************/
 449:Generated_Source\PSoC6/I2C_MPU6050.h **** __STATIC_INLINE void I2C_MPU6050_SlaveAbortWrite(void)
 450:Generated_Source\PSoC6/I2C_MPU6050.h **** {
 451:Generated_Source\PSoC6/I2C_MPU6050.h ****     Cy_SCB_I2C_SlaveAbortWrite(I2C_MPU6050_HW, &I2C_MPU6050_context);
 452:Generated_Source\PSoC6/I2C_MPU6050.h **** }
 453:Generated_Source\PSoC6/I2C_MPU6050.h **** 
 454:Generated_Source\PSoC6/I2C_MPU6050.h **** 
 455:Generated_Source\PSoC6/I2C_MPU6050.h **** /*******************************************************************************
 456:Generated_Source\PSoC6/I2C_MPU6050.h **** * Function Name: I2C_MPU6050_SlaveGetWriteTransferCount
 457:Generated_Source\PSoC6/I2C_MPU6050.h **** ****************************************************************************//**
 458:Generated_Source\PSoC6/I2C_MPU6050.h **** *
 459:Generated_Source\PSoC6/I2C_MPU6050.h **** * Invokes the Cy_SCB_I2C_SlaveGetWriteTransferCount() PDL driver function.
 460:Generated_Source\PSoC6/I2C_MPU6050.h **** *
 461:Generated_Source\PSoC6/I2C_MPU6050.h **** *******************************************************************************/
 462:Generated_Source\PSoC6/I2C_MPU6050.h **** __STATIC_INLINE uint32_t I2C_MPU6050_SlaveGetWriteTransferCount(void)
 463:Generated_Source\PSoC6/I2C_MPU6050.h **** {
 464:Generated_Source\PSoC6/I2C_MPU6050.h ****     return Cy_SCB_I2C_SlaveGetWriteTransferCount(I2C_MPU6050_HW, &I2C_MPU6050_context);
 465:Generated_Source\PSoC6/I2C_MPU6050.h **** }
 466:Generated_Source\PSoC6/I2C_MPU6050.h **** 
 467:Generated_Source\PSoC6/I2C_MPU6050.h **** 
 468:Generated_Source\PSoC6/I2C_MPU6050.h **** /*******************************************************************************
 469:Generated_Source\PSoC6/I2C_MPU6050.h **** * Function Name: I2C_MPU6050_SlaveClearWriteStatus
 470:Generated_Source\PSoC6/I2C_MPU6050.h **** ****************************************************************************//**
ARM GAS  C:\Users\Vishwas\AppData\Local\Temp\ccA32DKj.s 			page 11


 471:Generated_Source\PSoC6/I2C_MPU6050.h **** *
 472:Generated_Source\PSoC6/I2C_MPU6050.h **** * Invokes the Cy_SCB_I2C_SlaveClearWriteStatus() PDL driver function.
 473:Generated_Source\PSoC6/I2C_MPU6050.h **** *
 474:Generated_Source\PSoC6/I2C_MPU6050.h **** *******************************************************************************/
 475:Generated_Source\PSoC6/I2C_MPU6050.h **** __STATIC_INLINE uint32_t I2C_MPU6050_SlaveClearWriteStatus(void)
 476:Generated_Source\PSoC6/I2C_MPU6050.h **** {
 477:Generated_Source\PSoC6/I2C_MPU6050.h ****     return Cy_SCB_I2C_SlaveClearWriteStatus(I2C_MPU6050_HW, &I2C_MPU6050_context);
 478:Generated_Source\PSoC6/I2C_MPU6050.h **** }
 479:Generated_Source\PSoC6/I2C_MPU6050.h **** #endif /* (I2C_MPU6050_ENABLE_SLAVE) */
 480:Generated_Source\PSoC6/I2C_MPU6050.h **** 
 481:Generated_Source\PSoC6/I2C_MPU6050.h **** 
 482:Generated_Source\PSoC6/I2C_MPU6050.h **** #if (I2C_MPU6050_ENABLE_MASTER)
 483:Generated_Source\PSoC6/I2C_MPU6050.h **** /*******************************************************************************
 484:Generated_Source\PSoC6/I2C_MPU6050.h **** * Function Name: I2C_MPU6050_MasterGetStatus
 485:Generated_Source\PSoC6/I2C_MPU6050.h **** ****************************************************************************//**
 486:Generated_Source\PSoC6/I2C_MPU6050.h **** *
 487:Generated_Source\PSoC6/I2C_MPU6050.h **** * Invokes the Cy_SCB_I2C_MasterGetStatus() PDL driver function.
 488:Generated_Source\PSoC6/I2C_MPU6050.h **** *
 489:Generated_Source\PSoC6/I2C_MPU6050.h **** *******************************************************************************/
 490:Generated_Source\PSoC6/I2C_MPU6050.h **** __STATIC_INLINE uint32_t I2C_MPU6050_MasterGetStatus(void)
 491:Generated_Source\PSoC6/I2C_MPU6050.h **** {
 492:Generated_Source\PSoC6/I2C_MPU6050.h ****     return Cy_SCB_I2C_MasterGetStatus(I2C_MPU6050_HW, &I2C_MPU6050_context);
 493:Generated_Source\PSoC6/I2C_MPU6050.h **** }
 494:Generated_Source\PSoC6/I2C_MPU6050.h **** 
 495:Generated_Source\PSoC6/I2C_MPU6050.h **** 
 496:Generated_Source\PSoC6/I2C_MPU6050.h **** /*******************************************************************************
 497:Generated_Source\PSoC6/I2C_MPU6050.h **** * Function Name: I2C_MPU6050_MasterRead
 498:Generated_Source\PSoC6/I2C_MPU6050.h **** ****************************************************************************//**
 499:Generated_Source\PSoC6/I2C_MPU6050.h **** *
 500:Generated_Source\PSoC6/I2C_MPU6050.h **** * Invokes the Cy_SCB_I2C_MasterRead() PDL driver function.
 501:Generated_Source\PSoC6/I2C_MPU6050.h **** *
 502:Generated_Source\PSoC6/I2C_MPU6050.h **** *******************************************************************************/
 503:Generated_Source\PSoC6/I2C_MPU6050.h **** __STATIC_INLINE cy_en_scb_i2c_status_t I2C_MPU6050_MasterRead(cy_stc_scb_i2c_master_xfer_config_t *
 504:Generated_Source\PSoC6/I2C_MPU6050.h **** {
 505:Generated_Source\PSoC6/I2C_MPU6050.h ****     return Cy_SCB_I2C_MasterRead(I2C_MPU6050_HW, xferConfig, &I2C_MPU6050_context);
 506:Generated_Source\PSoC6/I2C_MPU6050.h **** }
 507:Generated_Source\PSoC6/I2C_MPU6050.h **** 
 508:Generated_Source\PSoC6/I2C_MPU6050.h **** 
 509:Generated_Source\PSoC6/I2C_MPU6050.h **** /*******************************************************************************
 510:Generated_Source\PSoC6/I2C_MPU6050.h **** * Function Name: I2C_MPU6050_MasterAbortRead
 511:Generated_Source\PSoC6/I2C_MPU6050.h **** ****************************************************************************//**
 512:Generated_Source\PSoC6/I2C_MPU6050.h **** *
 513:Generated_Source\PSoC6/I2C_MPU6050.h **** * Invokes the Cy_SCB_I2C_MasterAbortRead() PDL driver function.
 514:Generated_Source\PSoC6/I2C_MPU6050.h **** *
 515:Generated_Source\PSoC6/I2C_MPU6050.h **** ******************************************************************************/
 516:Generated_Source\PSoC6/I2C_MPU6050.h **** __STATIC_INLINE void I2C_MPU6050_MasterAbortRead(void)
 517:Generated_Source\PSoC6/I2C_MPU6050.h **** {
 518:Generated_Source\PSoC6/I2C_MPU6050.h ****     Cy_SCB_I2C_MasterAbortRead(I2C_MPU6050_HW, &I2C_MPU6050_context);
 519:Generated_Source\PSoC6/I2C_MPU6050.h **** }
 520:Generated_Source\PSoC6/I2C_MPU6050.h **** 
 521:Generated_Source\PSoC6/I2C_MPU6050.h **** 
 522:Generated_Source\PSoC6/I2C_MPU6050.h **** /*******************************************************************************
 523:Generated_Source\PSoC6/I2C_MPU6050.h **** * Function Name: I2C_MPU6050_MasterWrite
 524:Generated_Source\PSoC6/I2C_MPU6050.h **** ****************************************************************************//**
 525:Generated_Source\PSoC6/I2C_MPU6050.h **** *
 526:Generated_Source\PSoC6/I2C_MPU6050.h **** * Invokes the Cy_SCB_I2C_MasterWrite() PDL driver function.
 527:Generated_Source\PSoC6/I2C_MPU6050.h **** *
ARM GAS  C:\Users\Vishwas\AppData\Local\Temp\ccA32DKj.s 			page 12


 528:Generated_Source\PSoC6/I2C_MPU6050.h **** *******************************************************************************/
 529:Generated_Source\PSoC6/I2C_MPU6050.h **** __STATIC_INLINE cy_en_scb_i2c_status_t I2C_MPU6050_MasterWrite(cy_stc_scb_i2c_master_xfer_config_t 
 530:Generated_Source\PSoC6/I2C_MPU6050.h **** {
 531:Generated_Source\PSoC6/I2C_MPU6050.h ****     return Cy_SCB_I2C_MasterWrite(I2C_MPU6050_HW, xferConfig, &I2C_MPU6050_context);
 532:Generated_Source\PSoC6/I2C_MPU6050.h **** }
 533:Generated_Source\PSoC6/I2C_MPU6050.h **** 
 534:Generated_Source\PSoC6/I2C_MPU6050.h **** 
 535:Generated_Source\PSoC6/I2C_MPU6050.h **** /*******************************************************************************
 536:Generated_Source\PSoC6/I2C_MPU6050.h **** * Function Name: I2C_MPU6050_MasterAbortWrite
 537:Generated_Source\PSoC6/I2C_MPU6050.h **** ****************************************************************************//**
 538:Generated_Source\PSoC6/I2C_MPU6050.h **** *
 539:Generated_Source\PSoC6/I2C_MPU6050.h **** * Invokes the Cy_SCB_I2C_MasterAbortWrite() PDL driver function.
 540:Generated_Source\PSoC6/I2C_MPU6050.h **** *
 541:Generated_Source\PSoC6/I2C_MPU6050.h **** *******************************************************************************/
 542:Generated_Source\PSoC6/I2C_MPU6050.h **** __STATIC_INLINE void I2C_MPU6050_MasterAbortWrite(void)
 543:Generated_Source\PSoC6/I2C_MPU6050.h **** {
 544:Generated_Source\PSoC6/I2C_MPU6050.h ****     Cy_SCB_I2C_MasterAbortWrite(I2C_MPU6050_HW, &I2C_MPU6050_context);
 545:Generated_Source\PSoC6/I2C_MPU6050.h **** }
 546:Generated_Source\PSoC6/I2C_MPU6050.h **** 
 547:Generated_Source\PSoC6/I2C_MPU6050.h **** 
 548:Generated_Source\PSoC6/I2C_MPU6050.h **** /*******************************************************************************
 549:Generated_Source\PSoC6/I2C_MPU6050.h **** * Function Name: I2C_MPU6050_MasterGetTransferCount
 550:Generated_Source\PSoC6/I2C_MPU6050.h **** ****************************************************************************//**
 551:Generated_Source\PSoC6/I2C_MPU6050.h **** *
 552:Generated_Source\PSoC6/I2C_MPU6050.h **** * Invokes the Cy_SCB_I2C_MasterGetTransferCount() PDL driver function.
 553:Generated_Source\PSoC6/I2C_MPU6050.h **** *
 554:Generated_Source\PSoC6/I2C_MPU6050.h **** *******************************************************************************/
 555:Generated_Source\PSoC6/I2C_MPU6050.h **** __STATIC_INLINE uint32_t I2C_MPU6050_MasterGetTransferCount(void)
 556:Generated_Source\PSoC6/I2C_MPU6050.h **** {
 557:Generated_Source\PSoC6/I2C_MPU6050.h ****     return Cy_SCB_I2C_MasterGetTransferCount(I2C_MPU6050_HW, &I2C_MPU6050_context);
 558:Generated_Source\PSoC6/I2C_MPU6050.h **** }
 559:Generated_Source\PSoC6/I2C_MPU6050.h **** 
 560:Generated_Source\PSoC6/I2C_MPU6050.h **** 
 561:Generated_Source\PSoC6/I2C_MPU6050.h **** /*******************************************************************************
 562:Generated_Source\PSoC6/I2C_MPU6050.h **** * Function Name: I2C_MPU6050_MasterSendStart
 563:Generated_Source\PSoC6/I2C_MPU6050.h **** ****************************************************************************//**
 564:Generated_Source\PSoC6/I2C_MPU6050.h **** *
 565:Generated_Source\PSoC6/I2C_MPU6050.h **** * Invokes the Cy_SCB_I2C_MasterSendStart() PDL driver function.
 566:Generated_Source\PSoC6/I2C_MPU6050.h **** *
 567:Generated_Source\PSoC6/I2C_MPU6050.h **** *******************************************************************************/
 568:Generated_Source\PSoC6/I2C_MPU6050.h **** __STATIC_INLINE cy_en_scb_i2c_status_t I2C_MPU6050_MasterSendStart(uint32_t address, cy_en_scb_i2c_
 569:Generated_Source\PSoC6/I2C_MPU6050.h **** {
 570:Generated_Source\PSoC6/I2C_MPU6050.h ****     return Cy_SCB_I2C_MasterSendStart(I2C_MPU6050_HW, address, bitRnW, timeoutMs, &I2C_MPU6050_cont
  53              		.loc 2 570 0
  54 000e 1B4C     		ldr	r4, .L5
  55 0010 1B4F     		ldr	r7, .L5+4
  56 0012 0097     		str	r7, [sp]
  57 0014 0A23     		movs	r3, #10
  58              	.LVL2:
  59 0016 0022     		movs	r2, #0
  60              	.LVL3:
  61 0018 0146     		mov	r1, r0
  62              	.LVL4:
  63 001a 2046     		mov	r0, r4
  64              	.LVL5:
  65 001c FFF7FEFF 		bl	Cy_SCB_I2C_MasterSendStart
  66              	.LVL6:
ARM GAS  C:\Users\Vishwas\AppData\Local\Temp\ccA32DKj.s 			page 13


  67              	.LBE23:
  68              	.LBE22:
  69              	.LBB24:
  70              	.LBB25:
 571:Generated_Source\PSoC6/I2C_MPU6050.h **** }
 572:Generated_Source\PSoC6/I2C_MPU6050.h **** 
 573:Generated_Source\PSoC6/I2C_MPU6050.h **** 
 574:Generated_Source\PSoC6/I2C_MPU6050.h **** /*******************************************************************************
 575:Generated_Source\PSoC6/I2C_MPU6050.h **** * Function Name: I2C_MPU6050_MasterSendReStart
 576:Generated_Source\PSoC6/I2C_MPU6050.h **** ****************************************************************************//**
 577:Generated_Source\PSoC6/I2C_MPU6050.h **** *
 578:Generated_Source\PSoC6/I2C_MPU6050.h **** * Invokes the Cy_SCB_I2C_MasterSendReStart() PDL driver function.
 579:Generated_Source\PSoC6/I2C_MPU6050.h **** *
 580:Generated_Source\PSoC6/I2C_MPU6050.h **** *******************************************************************************/
 581:Generated_Source\PSoC6/I2C_MPU6050.h **** __STATIC_INLINE cy_en_scb_i2c_status_t I2C_MPU6050_MasterSendReStart(uint32_t address, cy_en_scb_i2
 582:Generated_Source\PSoC6/I2C_MPU6050.h **** {
 583:Generated_Source\PSoC6/I2C_MPU6050.h ****     return Cy_SCB_I2C_MasterSendReStart(I2C_MPU6050_HW, address, bitRnW, timeoutMs, &I2C_MPU6050_co
 584:Generated_Source\PSoC6/I2C_MPU6050.h **** }
 585:Generated_Source\PSoC6/I2C_MPU6050.h **** 
 586:Generated_Source\PSoC6/I2C_MPU6050.h **** 
 587:Generated_Source\PSoC6/I2C_MPU6050.h **** /*******************************************************************************
 588:Generated_Source\PSoC6/I2C_MPU6050.h **** * Function Name: I2C_MPU6050_MasterSendStop
 589:Generated_Source\PSoC6/I2C_MPU6050.h **** ****************************************************************************//**
 590:Generated_Source\PSoC6/I2C_MPU6050.h **** *
 591:Generated_Source\PSoC6/I2C_MPU6050.h **** * Invokes the Cy_SCB_I2C_MasterSendStop() PDL driver function.
 592:Generated_Source\PSoC6/I2C_MPU6050.h **** *
 593:Generated_Source\PSoC6/I2C_MPU6050.h **** *******************************************************************************/
 594:Generated_Source\PSoC6/I2C_MPU6050.h **** __STATIC_INLINE cy_en_scb_i2c_status_t I2C_MPU6050_MasterSendStop(uint32_t timeoutMs)
 595:Generated_Source\PSoC6/I2C_MPU6050.h **** {
 596:Generated_Source\PSoC6/I2C_MPU6050.h ****     return Cy_SCB_I2C_MasterSendStop(I2C_MPU6050_HW, timeoutMs, &I2C_MPU6050_context);
 597:Generated_Source\PSoC6/I2C_MPU6050.h **** }
 598:Generated_Source\PSoC6/I2C_MPU6050.h **** 
 599:Generated_Source\PSoC6/I2C_MPU6050.h **** 
 600:Generated_Source\PSoC6/I2C_MPU6050.h **** /*******************************************************************************
 601:Generated_Source\PSoC6/I2C_MPU6050.h **** * Function Name: I2C_MPU6050_MasterReadByte
 602:Generated_Source\PSoC6/I2C_MPU6050.h **** ****************************************************************************//**
 603:Generated_Source\PSoC6/I2C_MPU6050.h **** *
 604:Generated_Source\PSoC6/I2C_MPU6050.h **** * Invokes the Cy_SCB_I2C_MasterReadByte() PDL driver function.
 605:Generated_Source\PSoC6/I2C_MPU6050.h **** *
 606:Generated_Source\PSoC6/I2C_MPU6050.h **** *******************************************************************************/
 607:Generated_Source\PSoC6/I2C_MPU6050.h **** __STATIC_INLINE cy_en_scb_i2c_status_t I2C_MPU6050_MasterReadByte(cy_en_scb_i2c_command_t ackNack, 
 608:Generated_Source\PSoC6/I2C_MPU6050.h **** {
 609:Generated_Source\PSoC6/I2C_MPU6050.h ****     return Cy_SCB_I2C_MasterReadByte(I2C_MPU6050_HW, ackNack, byte, timeoutMs, &I2C_MPU6050_context
 610:Generated_Source\PSoC6/I2C_MPU6050.h **** }
 611:Generated_Source\PSoC6/I2C_MPU6050.h **** 
 612:Generated_Source\PSoC6/I2C_MPU6050.h **** 
 613:Generated_Source\PSoC6/I2C_MPU6050.h **** /*******************************************************************************
 614:Generated_Source\PSoC6/I2C_MPU6050.h **** * Function Name: I2C_MPU6050_MasterWriteByte
 615:Generated_Source\PSoC6/I2C_MPU6050.h **** ****************************************************************************//**
 616:Generated_Source\PSoC6/I2C_MPU6050.h **** *
 617:Generated_Source\PSoC6/I2C_MPU6050.h **** * Invokes the Cy_SCB_I2C_MasterWriteByte() PDL driver function.
 618:Generated_Source\PSoC6/I2C_MPU6050.h **** *
 619:Generated_Source\PSoC6/I2C_MPU6050.h **** *******************************************************************************/
 620:Generated_Source\PSoC6/I2C_MPU6050.h **** __STATIC_INLINE cy_en_scb_i2c_status_t I2C_MPU6050_MasterWriteByte(uint8_t byte, uint32_t timeoutMs
 621:Generated_Source\PSoC6/I2C_MPU6050.h **** {
 622:Generated_Source\PSoC6/I2C_MPU6050.h ****     return Cy_SCB_I2C_MasterWriteByte(I2C_MPU6050_HW, byte, timeoutMs, &I2C_MPU6050_context);
  71              		.loc 2 622 0
ARM GAS  C:\Users\Vishwas\AppData\Local\Temp\ccA32DKj.s 			page 14


  72 0020 3B46     		mov	r3, r7
  73 0022 0A22     		movs	r2, #10
  74 0024 4946     		mov	r1, r9
  75 0026 2046     		mov	r0, r4
  76 0028 FFF7FEFF 		bl	Cy_SCB_I2C_MasterWriteByte
  77              	.LVL7:
  78              	.LBE25:
  79              	.LBE24:
  80              	.LBB26:
  81              	.LBB27:
 583:Generated_Source\PSoC6/I2C_MPU6050.h **** }
  82              		.loc 2 583 0
  83 002c 0097     		str	r7, [sp]
  84 002e 0A23     		movs	r3, #10
  85 0030 0122     		movs	r2, #1
  86 0032 4146     		mov	r1, r8
  87 0034 2046     		mov	r0, r4
  88 0036 FFF7FEFF 		bl	Cy_SCB_I2C_MasterSendReStart
  89              	.LVL8:
  90              	.LBE27:
  91              	.LBE26:
  49:i2cFunctions.c **** 	
  50:i2cFunctions.c ****     /******************INSERT CODE HERE******CODE 1.1*********/	
  51:i2cFunctions.c ****     /* Insert the code to read "length" number of bytes from the device address 
  52:i2cFunctions.c ****      * "devAddr" and register address "regAddr" passed to the function. Save this to
  53:i2cFunctions.c ****      * the location pointer by the pointer "value"  */
  54:i2cFunctions.c ****     
  55:i2cFunctions.c ****     
  56:i2cFunctions.c ****         uint8 i = 0;
  92              		.loc 1 56 0
  93 003a 0024     		movs	r4, #0
  94 003c 0BE0     		b	.L2
  95              	.LVL9:
  96              	.L3:
  97              	.LBB28:
  98              	.LBB29:
 609:Generated_Source\PSoC6/I2C_MPU6050.h **** }
  99              		.loc 2 609 0
 100 003e 104B     		ldr	r3, .L5+4
 101 0040 0093     		str	r3, [sp]
 102 0042 0A23     		movs	r3, #10
 103 0044 3219     		adds	r2, r6, r4
 104              	.LVL10:
 105 0046 0021     		movs	r1, #0
 106 0048 0C48     		ldr	r0, .L5
 107 004a FFF7FEFF 		bl	Cy_SCB_I2C_MasterReadByte
 108              	.LVL11:
 109              	.LBE29:
 110              	.LBE28:
  57:i2cFunctions.c ****         I2C_MPU6050_MasterSendStart(devAddr,0,10);
  58:i2cFunctions.c ****         I2C_MPU6050_MasterWriteByte(regAddr,10);
  59:i2cFunctions.c ****         I2C_MPU6050_MasterSendReStart(devAddr,1,10);
  60:i2cFunctions.c ****         while((length - 1))
  61:i2cFunctions.c ****         {
  62:i2cFunctions.c ****             I2C_MPU6050_MasterReadByte(CY_SCB_I2C_ACK,(value + i),10);
  63:i2cFunctions.c ****             i++;
 111              		.loc 1 63 0
ARM GAS  C:\Users\Vishwas\AppData\Local\Temp\ccA32DKj.s 			page 15


 112 004e 0134     		adds	r4, r4, #1
 113              	.LVL12:
 114 0050 E4B2     		uxtb	r4, r4
 115              	.LVL13:
  64:i2cFunctions.c ****             length--;
 116              		.loc 1 64 0
 117 0052 013D     		subs	r5, r5, #1
 118              	.LVL14:
 119 0054 EDB2     		uxtb	r5, r5
 120              	.LVL15:
 121              	.L2:
  60:i2cFunctions.c ****         {
 122              		.loc 1 60 0
 123 0056 012D     		cmp	r5, #1
 124 0058 F1D1     		bne	.L3
 125              	.LVL16:
 126              	.LBB30:
 127              	.LBB31:
 609:Generated_Source\PSoC6/I2C_MPU6050.h **** }
 128              		.loc 2 609 0
 129 005a 084D     		ldr	r5, .L5
 130              	.LVL17:
 131 005c 084F     		ldr	r7, .L5+4
 132 005e 0097     		str	r7, [sp]
 133 0060 0A23     		movs	r3, #10
 134 0062 3219     		adds	r2, r6, r4
 135              	.LVL18:
 136 0064 0121     		movs	r1, #1
 137 0066 2846     		mov	r0, r5
 138 0068 FFF7FEFF 		bl	Cy_SCB_I2C_MasterReadByte
 139              	.LVL19:
 140              	.LBE31:
 141              	.LBE30:
 142              	.LBB32:
 143              	.LBB33:
 596:Generated_Source\PSoC6/I2C_MPU6050.h **** }
 144              		.loc 2 596 0
 145 006c 3A46     		mov	r2, r7
 146 006e 0021     		movs	r1, #0
 147 0070 2846     		mov	r0, r5
 148 0072 FFF7FEFF 		bl	Cy_SCB_I2C_MasterSendStop
 149              	.LVL20:
 150              	.LBE33:
 151              	.LBE32:
  65:i2cFunctions.c ****         }
  66:i2cFunctions.c ****         I2C_MPU6050_MasterReadByte(CY_SCB_I2C_NAK,(value + i),10);
  67:i2cFunctions.c ****         I2C_MPU6050_MasterSendStop(0);
  68:i2cFunctions.c ****     
  69:i2cFunctions.c ****     
  70:i2cFunctions.c ****     /****************END CODE 1.1 HERE*************************/
  71:i2cFunctions.c **** }
 152              		.loc 1 71 0
 153 0076 03B0     		add	sp, sp, #12
 154              		.cfi_def_cfa_offset 28
 155              		@ sp needed
 156 0078 BDE8F083 		pop	{r4, r5, r6, r7, r8, r9, pc}
 157              	.LVL21:
ARM GAS  C:\Users\Vishwas\AppData\Local\Temp\ccA32DKj.s 			page 16


 158              	.L6:
 159              		.align	2
 160              	.L5:
 161 007c 00006440 		.word	1080295424
 162 0080 00000000 		.word	I2C_MPU6050_context
 163              		.cfi_endproc
 164              	.LFE508:
 165              		.size	I2CReadBytes, .-I2CReadBytes
 166              		.section	.text.I2CWriteBytes,"ax",%progbits
 167              		.align	2
 168              		.global	I2CWriteBytes
 169              		.thumb
 170              		.thumb_func
 171              		.type	I2CWriteBytes, %function
 172              	I2CWriteBytes:
 173              	.LFB509:
  72:i2cFunctions.c **** 
  73:i2cFunctions.c **** void I2CWriteBytes(uint8_t devAddr, uint8_t regAddr, uint8_t length, uint8_t *value) 
  74:i2cFunctions.c **** {
 174              		.loc 1 74 0
 175              		.cfi_startproc
 176              		@ args = 0, pretend = 0, frame = 0
 177              		@ frame_needed = 0, uses_anonymous_args = 0
 178              	.LVL22:
 179 0000 2DE9F041 		push	{r4, r5, r6, r7, r8, lr}
 180              		.cfi_def_cfa_offset 24
 181              		.cfi_offset 4, -24
 182              		.cfi_offset 5, -20
 183              		.cfi_offset 6, -16
 184              		.cfi_offset 7, -12
 185              		.cfi_offset 8, -8
 186              		.cfi_offset 14, -4
 187 0004 82B0     		sub	sp, sp, #8
 188              		.cfi_def_cfa_offset 32
 189 0006 8846     		mov	r8, r1
 190 0008 1446     		mov	r4, r2
 191 000a 1E46     		mov	r6, r3
 192              	.LVL23:
 193              	.LBB34:
 194              	.LBB35:
 570:Generated_Source\PSoC6/I2C_MPU6050.h **** }
 195              		.loc 2 570 0
 196 000c 124D     		ldr	r5, .L11
 197 000e 134F     		ldr	r7, .L11+4
 198 0010 0097     		str	r7, [sp]
 199 0012 0A23     		movs	r3, #10
 200              	.LVL24:
 201 0014 0022     		movs	r2, #0
 202              	.LVL25:
 203 0016 0146     		mov	r1, r0
 204              	.LVL26:
 205 0018 2846     		mov	r0, r5
 206              	.LVL27:
 207 001a FFF7FEFF 		bl	Cy_SCB_I2C_MasterSendStart
 208              	.LVL28:
 209              	.LBE35:
 210              	.LBE34:
ARM GAS  C:\Users\Vishwas\AppData\Local\Temp\ccA32DKj.s 			page 17


 211              	.LBB36:
 212              	.LBB37:
 213              		.loc 2 622 0
 214 001e 3B46     		mov	r3, r7
 215 0020 0A22     		movs	r2, #10
 216 0022 4146     		mov	r1, r8
 217 0024 2846     		mov	r0, r5
 218 0026 FFF7FEFF 		bl	Cy_SCB_I2C_MasterWriteByte
 219              	.LVL29:
 220              	.LBE37:
 221              	.LBE36:
  75:i2cFunctions.c **** 	
  76:i2cFunctions.c ****     /******************INSERT CODE HERE******CODE 1.2*********/
  77:i2cFunctions.c ****     /* Insert the code to write "length" number of bytes to the device address 
  78:i2cFunctions.c ****      * "devAddr" and register address "regAddr" passed to the function. The data is
  79:i2cFunctions.c ****      * available from the location pointer by the pointer "value"  */
  80:i2cFunctions.c ****     
  81:i2cFunctions.c **** 
  82:i2cFunctions.c ****     uint8 i = 0;
 222              		.loc 1 82 0
 223 002a 0025     		movs	r5, #0
 224 002c 09E0     		b	.L8
 225              	.LVL30:
 226              	.L9:
 227              	.LBB38:
 228              	.LBB39:
 229              		.loc 2 622 0
 230 002e 0B4B     		ldr	r3, .L11+4
 231 0030 0A22     		movs	r2, #10
 232 0032 715D     		ldrb	r1, [r6, r5]	@ zero_extendqisi2
 233 0034 0848     		ldr	r0, .L11
 234 0036 FFF7FEFF 		bl	Cy_SCB_I2C_MasterWriteByte
 235              	.LVL31:
 236              	.LBE39:
 237              	.LBE38:
  83:i2cFunctions.c ****     I2C_MPU6050_MasterSendStart(devAddr,0,10);
  84:i2cFunctions.c ****     I2C_MPU6050_MasterWriteByte(regAddr,10);
  85:i2cFunctions.c ****     while(length)
  86:i2cFunctions.c ****     {
  87:i2cFunctions.c ****         I2C_MPU6050_MasterWriteByte(*(value + i),10);
  88:i2cFunctions.c ****         i++;
 238              		.loc 1 88 0
 239 003a 0135     		adds	r5, r5, #1
 240              	.LVL32:
 241 003c EDB2     		uxtb	r5, r5
 242              	.LVL33:
  89:i2cFunctions.c ****         length--;
 243              		.loc 1 89 0
 244 003e 013C     		subs	r4, r4, #1
 245              	.LVL34:
 246 0040 E4B2     		uxtb	r4, r4
 247              	.LVL35:
 248              	.L8:
  85:i2cFunctions.c ****     {
 249              		.loc 1 85 0
 250 0042 002C     		cmp	r4, #0
 251 0044 F3D1     		bne	.L9
ARM GAS  C:\Users\Vishwas\AppData\Local\Temp\ccA32DKj.s 			page 18


 252              	.LVL36:
 253              	.LBB40:
 254              	.LBB41:
 596:Generated_Source\PSoC6/I2C_MPU6050.h **** }
 255              		.loc 2 596 0
 256 0046 054A     		ldr	r2, .L11+4
 257 0048 0021     		movs	r1, #0
 258 004a 0348     		ldr	r0, .L11
 259 004c FFF7FEFF 		bl	Cy_SCB_I2C_MasterSendStop
 260              	.LVL37:
 261              	.LBE41:
 262              	.LBE40:
  90:i2cFunctions.c ****     }
  91:i2cFunctions.c ****     I2C_MPU6050_MasterSendStop(0);
  92:i2cFunctions.c **** 
  93:i2cFunctions.c **** 
  94:i2cFunctions.c ****     
  95:i2cFunctions.c ****     
  96:i2cFunctions.c ****     /****************END CODE 1.2 HERE*************************/
  97:i2cFunctions.c **** }
 263              		.loc 1 97 0
 264 0050 02B0     		add	sp, sp, #8
 265              		.cfi_def_cfa_offset 24
 266              		@ sp needed
 267 0052 BDE8F081 		pop	{r4, r5, r6, r7, r8, pc}
 268              	.LVL38:
 269              	.L12:
 270 0056 00BF     		.align	2
 271              	.L11:
 272 0058 00006440 		.word	1080295424
 273 005c 00000000 		.word	I2C_MPU6050_context
 274              		.cfi_endproc
 275              	.LFE509:
 276              		.size	I2CWriteBytes, .-I2CWriteBytes
 277              		.section	.text.I2CReadByte,"ax",%progbits
 278              		.align	2
 279              		.global	I2CReadByte
 280              		.thumb
 281              		.thumb_func
 282              		.type	I2CReadByte, %function
 283              	I2CReadByte:
 284              	.LFB510:
  98:i2cFunctions.c **** 
  99:i2cFunctions.c **** /* Following functions are build on top of the functions defined above. */
 100:i2cFunctions.c **** void I2CReadByte(uint8_t devAddr, uint8_t regAddr, uint8_t *value) {
 285              		.loc 1 100 0
 286              		.cfi_startproc
 287              		@ args = 0, pretend = 0, frame = 0
 288              		@ frame_needed = 0, uses_anonymous_args = 0
 289              	.LVL39:
 290 0000 08B5     		push	{r3, lr}
 291              		.cfi_def_cfa_offset 8
 292              		.cfi_offset 3, -8
 293              		.cfi_offset 14, -4
 101:i2cFunctions.c **** 	I2CReadBytes(devAddr, regAddr, 1, value);
 294              		.loc 1 101 0
 295 0002 1346     		mov	r3, r2
ARM GAS  C:\Users\Vishwas\AppData\Local\Temp\ccA32DKj.s 			page 19


 296 0004 0122     		movs	r2, #1
 297              	.LVL40:
 298 0006 FFF7FEFF 		bl	I2CReadBytes
 299              	.LVL41:
 300 000a 08BD     		pop	{r3, pc}
 301              		.cfi_endproc
 302              	.LFE510:
 303              		.size	I2CReadByte, .-I2CReadByte
 304              		.section	.text.I2CSplReadByte,"ax",%progbits
 305              		.align	2
 306              		.global	I2CSplReadByte
 307              		.thumb
 308              		.thumb_func
 309              		.type	I2CSplReadByte, %function
 310              	I2CSplReadByte:
 311              	.LFB511:
 102:i2cFunctions.c **** }
 103:i2cFunctions.c **** 
 104:i2cFunctions.c **** uint8_t I2CSplReadByte(uint8_t devAddr, uint8_t regAddr) {
 312              		.loc 1 104 0
 313              		.cfi_startproc
 314              		@ args = 0, pretend = 0, frame = 0
 315              		@ frame_needed = 0, uses_anonymous_args = 0
 316              	.LVL42:
 317 0000 10B5     		push	{r4, lr}
 318              		.cfi_def_cfa_offset 8
 319              		.cfi_offset 4, -8
 320              		.cfi_offset 14, -4
 105:i2cFunctions.c **** 	
 106:i2cFunctions.c ****     I2CReadBytes(devAddr, regAddr, 1, &temp_value);
 321              		.loc 1 106 0
 322 0002 034C     		ldr	r4, .L17
 323 0004 2346     		mov	r3, r4
 324 0006 0122     		movs	r2, #1
 325 0008 FFF7FEFF 		bl	I2CReadBytes
 326              	.LVL43:
 107:i2cFunctions.c ****     return(temp_value);
 108:i2cFunctions.c **** }
 327              		.loc 1 108 0
 328 000c 2078     		ldrb	r0, [r4]	@ zero_extendqisi2
 329 000e 10BD     		pop	{r4, pc}
 330              	.L18:
 331              		.align	2
 332              	.L17:
 333 0010 00000000 		.word	.LANCHOR0
 334              		.cfi_endproc
 335              	.LFE511:
 336              		.size	I2CSplReadByte, .-I2CSplReadByte
 337              		.section	.text.I2CReadBits,"ax",%progbits
 338              		.align	2
 339              		.global	I2CReadBits
 340              		.thumb
 341              		.thumb_func
 342              		.type	I2CReadBits, %function
 343              	I2CReadBits:
 344              	.LFB512:
 109:i2cFunctions.c **** 
ARM GAS  C:\Users\Vishwas\AppData\Local\Temp\ccA32DKj.s 			page 20


 110:i2cFunctions.c **** void I2CReadBits(uint8_t devAddr, uint8_t regAddr, uint8_t bitStart, \
 111:i2cFunctions.c ****                                                 uint8_t length, uint8_t *value) 
 112:i2cFunctions.c **** {
 345              		.loc 1 112 0
 346              		.cfi_startproc
 347              		@ args = 4, pretend = 0, frame = 0
 348              		@ frame_needed = 0, uses_anonymous_args = 0
 349              	.LVL44:
 350 0000 70B5     		push	{r4, r5, r6, lr}
 351              		.cfi_def_cfa_offset 16
 352              		.cfi_offset 4, -16
 353              		.cfi_offset 5, -12
 354              		.cfi_offset 6, -8
 355              		.cfi_offset 14, -4
 356 0002 049E     		ldr	r6, [sp, #16]
 113:i2cFunctions.c ****    	uint8_t mask = ((1 << length) - 1) << (bitStart - length + 1);
 357              		.loc 1 113 0
 358 0004 0124     		movs	r4, #1
 359 0006 9C40     		lsls	r4, r4, r3
 360 0008 013C     		subs	r4, r4, #1
 361 000a D21A     		subs	r2, r2, r3
 362              	.LVL45:
 363 000c 551C     		adds	r5, r2, #1
 364 000e AC40     		lsls	r4, r4, r5
 365 0010 E4B2     		uxtb	r4, r4
 366              	.LVL46:
 114:i2cFunctions.c ****     I2CReadByte(devAddr, regAddr, value);
 367              		.loc 1 114 0
 368 0012 3246     		mov	r2, r6
 369 0014 FFF7FEFF 		bl	I2CReadByte
 370              	.LVL47:
 115:i2cFunctions.c ****     *value &= mask;
 371              		.loc 1 115 0
 372 0018 3278     		ldrb	r2, [r6]	@ zero_extendqisi2
 373 001a 1440     		ands	r4, r4, r2
 374              	.LVL48:
 116:i2cFunctions.c ****     *value >>= (bitStart - length + 1);
 375              		.loc 1 116 0
 376 001c 44FA05F5 		asr	r5, r4, r5
 377 0020 3570     		strb	r5, [r6]
 378 0022 70BD     		pop	{r4, r5, r6, pc}
 379              		.cfi_endproc
 380              	.LFE512:
 381              		.size	I2CReadBits, .-I2CReadBits
 382              		.section	.text.I2CReadBit,"ax",%progbits
 383              		.align	2
 384              		.global	I2CReadBit
 385              		.thumb
 386              		.thumb_func
 387              		.type	I2CReadBit, %function
 388              	I2CReadBit:
 389              	.LFB513:
 117:i2cFunctions.c **** }
 118:i2cFunctions.c **** 
 119:i2cFunctions.c **** void I2CReadBit(uint8_t devAddr, uint8_t regAddr, uint8_t bitNum, uint8_t *value)
 120:i2cFunctions.c **** {
 390              		.loc 1 120 0
ARM GAS  C:\Users\Vishwas\AppData\Local\Temp\ccA32DKj.s 			page 21


 391              		.cfi_startproc
 392              		@ args = 0, pretend = 0, frame = 0
 393              		@ frame_needed = 0, uses_anonymous_args = 0
 394              	.LVL49:
 395 0000 38B5     		push	{r3, r4, r5, lr}
 396              		.cfi_def_cfa_offset 16
 397              		.cfi_offset 3, -16
 398              		.cfi_offset 4, -12
 399              		.cfi_offset 5, -8
 400              		.cfi_offset 14, -4
 401 0002 1546     		mov	r5, r2
 402 0004 1C46     		mov	r4, r3
 121:i2cFunctions.c **** 	I2CReadByte(devAddr, regAddr, value);
 403              		.loc 1 121 0
 404 0006 1A46     		mov	r2, r3
 405              	.LVL50:
 406 0008 FFF7FEFF 		bl	I2CReadByte
 407              	.LVL51:
 122:i2cFunctions.c **** 	*value = *value & (1 << bitNum);
 408              		.loc 1 122 0
 409 000c 2378     		ldrb	r3, [r4]	@ zero_extendqisi2
 410 000e 0122     		movs	r2, #1
 411 0010 AA40     		lsls	r2, r2, r5
 412 0012 1A40     		ands	r2, r2, r3
 413 0014 2270     		strb	r2, [r4]
 414 0016 38BD     		pop	{r3, r4, r5, pc}
 415              		.cfi_endproc
 416              	.LFE513:
 417              		.size	I2CReadBit, .-I2CReadBit
 418              		.section	.text.I2CWriteByte,"ax",%progbits
 419              		.align	2
 420              		.global	I2CWriteByte
 421              		.thumb
 422              		.thumb_func
 423              		.type	I2CWriteByte, %function
 424              	I2CWriteByte:
 425              	.LFB514:
 123:i2cFunctions.c **** }
 124:i2cFunctions.c **** 
 125:i2cFunctions.c **** void I2CWriteByte(uint8_t devAddr, uint8_t regAddr, uint8_t value) 
 126:i2cFunctions.c **** {
 426              		.loc 1 126 0
 427              		.cfi_startproc
 428              		@ args = 0, pretend = 0, frame = 8
 429              		@ frame_needed = 0, uses_anonymous_args = 0
 430              	.LVL52:
 431 0000 00B5     		push	{lr}
 432              		.cfi_def_cfa_offset 4
 433              		.cfi_offset 14, -4
 434 0002 83B0     		sub	sp, sp, #12
 435              		.cfi_def_cfa_offset 16
 436 0004 02AB     		add	r3, sp, #8
 437 0006 03F8012D 		strb	r2, [r3, #-1]!
 127:i2cFunctions.c **** 	I2CWriteBytes(devAddr, regAddr, 1, &value);
 438              		.loc 1 127 0
 439 000a 0122     		movs	r2, #1
 440              	.LVL53:
ARM GAS  C:\Users\Vishwas\AppData\Local\Temp\ccA32DKj.s 			page 22


 441 000c FFF7FEFF 		bl	I2CWriteBytes
 442              	.LVL54:
 128:i2cFunctions.c **** }
 443              		.loc 1 128 0
 444 0010 03B0     		add	sp, sp, #12
 445              		.cfi_def_cfa_offset 4
 446              		@ sp needed
 447 0012 5DF804FB 		ldr	pc, [sp], #4
 448              		.cfi_endproc
 449              	.LFE514:
 450              		.size	I2CWriteByte, .-I2CWriteByte
 451 0016 00BF     		.section	.text.I2CWriteBits,"ax",%progbits
 452              		.align	2
 453              		.global	I2CWriteBits
 454              		.thumb
 455              		.thumb_func
 456              		.type	I2CWriteBits, %function
 457              	I2CWriteBits:
 458              	.LFB515:
 129:i2cFunctions.c **** 
 130:i2cFunctions.c **** void I2CWriteBits(uint8_t devAddr, uint8_t regAddr, uint8_t bitStart, \
 131:i2cFunctions.c ****                                                   uint8_t length, uint8_t value) 
 132:i2cFunctions.c **** {
 459              		.loc 1 132 0
 460              		.cfi_startproc
 461              		@ args = 4, pretend = 0, frame = 8
 462              		@ frame_needed = 0, uses_anonymous_args = 0
 463              	.LVL55:
 464 0000 2DE9F041 		push	{r4, r5, r6, r7, r8, lr}
 465              		.cfi_def_cfa_offset 24
 466              		.cfi_offset 4, -24
 467              		.cfi_offset 5, -20
 468              		.cfi_offset 6, -16
 469              		.cfi_offset 7, -12
 470              		.cfi_offset 8, -8
 471              		.cfi_offset 14, -4
 472 0004 82B0     		sub	sp, sp, #8
 473              		.cfi_def_cfa_offset 32
 474 0006 0646     		mov	r6, r0
 475 0008 0F46     		mov	r7, r1
 133:i2cFunctions.c **** 	uint8_t b;
 134:i2cFunctions.c **** 	uint8_t mask = ((1 << length) - 1) << (bitStart - length + 1);
 476              		.loc 1 134 0
 477 000a 0124     		movs	r4, #1
 478 000c 9C40     		lsls	r4, r4, r3
 479 000e 013C     		subs	r4, r4, #1
 480 0010 D21A     		subs	r2, r2, r3
 481              	.LVL56:
 482 0012 551C     		adds	r5, r2, #1
 483 0014 AC40     		lsls	r4, r4, r5
 484 0016 5FFA84F8 		uxtb	r8, r4
 485              	.LVL57:
 135:i2cFunctions.c **** 	I2CReadByte(devAddr, regAddr, &b);
 486              		.loc 1 135 0
 487 001a 0DF10702 		add	r2, sp, #7
 488 001e FFF7FEFF 		bl	I2CReadByte
 489              	.LVL58:
ARM GAS  C:\Users\Vishwas\AppData\Local\Temp\ccA32DKj.s 			page 23


 136:i2cFunctions.c **** 	value <<= (bitStart - length + 1);
 490              		.loc 1 136 0
 491 0022 9DF82020 		ldrb	r2, [sp, #32]	@ zero_extendqisi2
 492 0026 AA40     		lsls	r2, r2, r5
 493              	.LVL59:
 137:i2cFunctions.c **** 	value &= mask;
 494              		.loc 1 137 0
 495 0028 02EA0808 		and	r8, r2, r8
 496              	.LVL60:
 138:i2cFunctions.c **** 	b &= ~(mask);
 497              		.loc 1 138 0
 498 002c 9DF80720 		ldrb	r2, [sp, #7]	@ zero_extendqisi2
 499 0030 22EA0404 		bic	r4, r2, r4
 500              	.LVL61:
 139:i2cFunctions.c **** 	b |= value;
 501              		.loc 1 139 0
 502 0034 48EA0402 		orr	r2, r8, r4
 503 0038 8DF80720 		strb	r2, [sp, #7]
 140:i2cFunctions.c **** 	I2CWriteByte(devAddr, regAddr, b);	
 504              		.loc 1 140 0
 505 003c 3946     		mov	r1, r7
 506 003e 3046     		mov	r0, r6
 507 0040 FFF7FEFF 		bl	I2CWriteByte
 508              	.LVL62:
 141:i2cFunctions.c **** }
 509              		.loc 1 141 0
 510 0044 02B0     		add	sp, sp, #8
 511              		.cfi_def_cfa_offset 24
 512              		@ sp needed
 513 0046 BDE8F081 		pop	{r4, r5, r6, r7, r8, pc}
 514              		.cfi_endproc
 515              	.LFE515:
 516              		.size	I2CWriteBits, .-I2CWriteBits
 517 004a 00BF     		.section	.text.I2CWriteBit,"ax",%progbits
 518              		.align	2
 519              		.global	I2CWriteBit
 520              		.thumb
 521              		.thumb_func
 522              		.type	I2CWriteBit, %function
 523              	I2CWriteBit:
 524              	.LFB516:
 142:i2cFunctions.c **** 
 143:i2cFunctions.c **** void I2CWriteBit(uint8_t devAddr, uint8_t regAddr, uint8_t bitNum, uint8_t value)
 144:i2cFunctions.c **** {
 525              		.loc 1 144 0
 526              		.cfi_startproc
 527              		@ args = 0, pretend = 0, frame = 8
 528              		@ frame_needed = 0, uses_anonymous_args = 0
 529              	.LVL63:
 530 0000 F0B5     		push	{r4, r5, r6, r7, lr}
 531              		.cfi_def_cfa_offset 20
 532              		.cfi_offset 4, -20
 533              		.cfi_offset 5, -16
 534              		.cfi_offset 6, -12
 535              		.cfi_offset 7, -8
 536              		.cfi_offset 14, -4
 537 0002 83B0     		sub	sp, sp, #12
ARM GAS  C:\Users\Vishwas\AppData\Local\Temp\ccA32DKj.s 			page 24


 538              		.cfi_def_cfa_offset 32
 539 0004 0446     		mov	r4, r0
 540 0006 0D46     		mov	r5, r1
 541 0008 1646     		mov	r6, r2
 542 000a 1F46     		mov	r7, r3
 145:i2cFunctions.c **** 	uint8_t b;
 146:i2cFunctions.c **** 	I2CReadByte(devAddr, regAddr, &b);
 543              		.loc 1 146 0
 544 000c 0DF10702 		add	r2, sp, #7
 545              	.LVL64:
 546 0010 FFF7FEFF 		bl	I2CReadByte
 547              	.LVL65:
 147:i2cFunctions.c **** 	b = (value != 0) ? (b | (1 << bitNum)) : (b & ~(1 << bitNum));
 548              		.loc 1 147 0
 549 0014 37B1     		cbz	r7, .L28
 550              		.loc 1 147 0 is_stmt 0 discriminator 1
 551 0016 0122     		movs	r2, #1
 552 0018 B240     		lsls	r2, r2, r6
 553 001a 9DF80730 		ldrb	r3, [sp, #7]	@ zero_extendqisi2
 554 001e 1A43     		orrs	r2, r2, r3
 555 0020 D2B2     		uxtb	r2, r2
 556 0022 05E0     		b	.L29
 557              	.L28:
 558              		.loc 1 147 0 discriminator 2
 559 0024 0122     		movs	r2, #1
 560 0026 B240     		lsls	r2, r2, r6
 561 0028 9DF80730 		ldrb	r3, [sp, #7]	@ zero_extendqisi2
 562 002c 23EA0202 		bic	r2, r3, r2
 563              	.L29:
 564              		.loc 1 147 0 discriminator 4
 565 0030 8DF80720 		strb	r2, [sp, #7]
 148:i2cFunctions.c **** 	I2CWriteByte(devAddr, regAddr, b);
 566              		.loc 1 148 0 is_stmt 1 discriminator 4
 567 0034 2946     		mov	r1, r5
 568 0036 2046     		mov	r0, r4
 569 0038 FFF7FEFF 		bl	I2CWriteByte
 570              	.LVL66:
 149:i2cFunctions.c **** }
 571              		.loc 1 149 0 discriminator 4
 572 003c 03B0     		add	sp, sp, #12
 573              		.cfi_def_cfa_offset 20
 574              		@ sp needed
 575 003e F0BD     		pop	{r4, r5, r6, r7, pc}
 576              		.cfi_endproc
 577              	.LFE516:
 578              		.size	I2CWriteBit, .-I2CWriteBit
 579              		.global	temp_value
 580              		.bss
 581              		.set	.LANCHOR0,. + 0
 582              		.type	temp_value, %object
 583              		.size	temp_value, 1
 584              	temp_value:
 585 0000 00       		.space	1
 586              		.text
 587              	.Letext0:
 588              		.file 3 "c:\\program files (x86)\\gnu tools arm embedded\\5.4 2016q3\\arm-none-eabi\\include\\mach
 589              		.file 4 "c:\\program files (x86)\\gnu tools arm embedded\\5.4 2016q3\\arm-none-eabi\\include\\sys\
ARM GAS  C:\Users\Vishwas\AppData\Local\Temp\ccA32DKj.s 			page 25


 590              		.file 5 "Generated_Source\\PSoC6\\pdl\\devices/psoc6/include/ip/cyip_scb.h"
 591              		.file 6 "Generated_Source\\PSoC6\\pdl\\devices/psoc6/include/psoc6_01_config.h"
 592              		.file 7 "Generated_Source\\PSoC6\\pdl\\drivers/peripheral/device/cy_device.h"
 593              		.file 8 "Generated_Source\\PSoC6\\pdl\\drivers/peripheral/syslib/cy_syslib.h"
 594              		.file 9 "Generated_Source\\PSoC6\\pdl\\drivers/peripheral/scb/cy_scb_i2c.h"
 595              		.file 10 "Generated_Source\\PSoC6\\pdl\\drivers/peripheral/scb/cy_scb_uart.h"
 596              		.file 11 "Generated_Source\\PSoC6\\pdl\\cmsis/include/core_cm4.h"
 597              		.file 12 "Generated_Source\\PSoC6/UART.h"