ARM GAS  C:\Users\hima\AppData\Local\Temp\ccR4vqcc.s 			page 1


   1              		.syntax unified
   2              		.cpu cortex-m4
   3              		.eabi_attribute 27, 1
   4              		.fpu fpv4-sp-d16
   5              		.eabi_attribute 20, 1
   6              		.eabi_attribute 21, 1
   7              		.eabi_attribute 23, 3
   8              		.eabi_attribute 24, 1
   9              		.eabi_attribute 25, 1
  10              		.eabi_attribute 26, 1
  11              		.eabi_attribute 30, 1
  12              		.eabi_attribute 34, 1
  13              		.eabi_attribute 18, 4
  14              		.thumb
  15              		.file	"mpu_9250.c"
  16              		.text
  17              	.Ltext0:
  18              		.cfi_sections	.debug_frame
  19              		.section	.text.MPU9250_init,"ax",%progbits
  20              		.align	2
  21              		.global	MPU9250_init
  22              		.thumb
  23              		.thumb_func
  24              		.type	MPU9250_init, %function
  25              	MPU9250_init:
  26              	.LFB0:
  27              		.file 1 "mpu_9250.c"
   1:mpu_9250.c    **** /******************************************************************************
   2:mpu_9250.c    **** I2Cdev library collection - MPU9250 I2C device class
   3:mpu_9250.c    **** Based on InvenSense MPU-9250 register map document rev. 2.0, 5/19/2011 
   4:mpu_9250.c    **** (RM-MPU-6000A-00)
   5:mpu_9250.c    **** 
   6:mpu_9250.c    **** 8/24/2011 by Jeff Rowberg <jeff@rowberg.net>
   7:mpu_9250.c    **** Updates should (hopefully) always be available at
   8:mpu_9250.c    **** https://github.com/jrowberg/i2cdevlib
   9:mpu_9250.c    **** 
  10:mpu_9250.c    **** Changelog:
  11:mpu_9250.c    **** 26/May/2014: C version to be used on PSoC Creator (www.cypress.com) by 
  12:mpu_9250.c    **** Hernán Sánchez
  13:mpu_9250.c    **** 
  14:mpu_9250.c    **** NOTE: THIS IS ONLY A PARIAL RELEASE. THIS DEVICE CLASS IS CURRENTLY UNDERGOING 
  15:mpu_9250.c    **** ACTIVE DEVELOPMENT AND IS STILL MISSING SOME IMPORTANT FEATURES. PLEASE KEEP 
  16:mpu_9250.c    **** THIS IN MIND IF YOU DECIDE TO USE THIS PARTICULAR CODE FOR ANYTHING.
  17:mpu_9250.c    **** ===============================================================================
  18:mpu_9250.c    **** I2Cdev device library code is placed under the MIT license
  19:mpu_9250.c    **** Copyright (c) 2012 Jeff Rowberg
  20:mpu_9250.c    **** 
  21:mpu_9250.c    **** Permission is hereby granted, free of charge, to any person obtaining a copy
  22:mpu_9250.c    **** of this software and associated documentation files (the "Software"), to deal
  23:mpu_9250.c    **** in the Software without restriction, including without limitation the rights
  24:mpu_9250.c    **** to use, copy, modify, merge, publish, distribute, sublicense, and/or sell
  25:mpu_9250.c    **** copies of the Software, and to permit persons to whom the Software is
  26:mpu_9250.c    **** furnished to do so, subject to the following conditions:
  27:mpu_9250.c    **** 
  28:mpu_9250.c    **** The above copyright notice and this permission notice shall be included in
  29:mpu_9250.c    **** all copies or substantial portions of the Software.
  30:mpu_9250.c    **** 
ARM GAS  C:\Users\hima\AppData\Local\Temp\ccR4vqcc.s 			page 2


  31:mpu_9250.c    **** THE SOFTWARE IS PROVIDED "AS IS", WITHOUT WARRANTY OF ANY KIND, EXPRESS OR
  32:mpu_9250.c    **** IMPLIED, INCLUDING BUT NOT LIMITED TO THE WARRANTIES OF MERCHANTABILITY,
  33:mpu_9250.c    **** FITNESS FOR A PARTICULAR PURPOSE AND NONINFRINGEMENT. IN NO EVENT SHALL THE
  34:mpu_9250.c    **** AUTHORS OR COPYRIGHT HOLDERS BE LIABLE FOR ANY CLAIM, DAMAGES OR OTHER
  35:mpu_9250.c    **** LIABILITY, WHETHER IN AN ACTION OF CONTRACT, TORT OR OTHERWISE, ARISING FROM,
  36:mpu_9250.c    **** OUT OF OR IN CONNECTION WITH THE SOFTWARE OR THE USE OR OTHER DEALINGS IN
  37:mpu_9250.c    **** THE SOFTWARE.
  38:mpu_9250.c    **** ==============================================================================*/
  39:mpu_9250.c    **** 
  40:mpu_9250.c    **** #include <stdint.h>
  41:mpu_9250.c    **** #include "mpu_9250.h"
  42:mpu_9250.c    **** 
  43:mpu_9250.c    **** /** Default constructor, uses default I2C address.
  44:mpu_9250.c    ****  * @see MPU9250_DEFAULT_ADDRESS
  45:mpu_9250.c    ****  */
  46:mpu_9250.c    **** void MPU9250_init() {
  28              		.loc 1 46 0
  29              		.cfi_startproc
  30              		@ args = 0, pretend = 0, frame = 0
  31              		@ frame_needed = 0, uses_anonymous_args = 0
  32              		@ link register save eliminated.
  47:mpu_9250.c    ****     devAddr = MPU9250_DEFAULT_ADDRESS;
  33              		.loc 1 47 0
  34 0000 6822     		movs	r2, #104
  35 0002 014B     		ldr	r3, .L2
  36 0004 1A70     		strb	r2, [r3]
  37 0006 7047     		bx	lr
  38              	.L3:
  39              		.align	2
  40              	.L2:
  41 0008 00000000 		.word	devAddr
  42              		.cfi_endproc
  43              	.LFE0:
  44              		.size	MPU9250_init, .-MPU9250_init
  45              		.section	.text.I2C_MPU9250_I2CAddress,"ax",%progbits
  46              		.align	2
  47              		.global	I2C_MPU9250_I2CAddress
  48              		.thumb
  49              		.thumb_func
  50              		.type	I2C_MPU9250_I2CAddress, %function
  51              	I2C_MPU9250_I2CAddress:
  52              	.LFB1:
  48:mpu_9250.c    **** }
  49:mpu_9250.c    **** 
  50:mpu_9250.c    **** /** Specific address constructor.
  51:mpu_9250.c    ****  * @param address I2C address
  52:mpu_9250.c    ****  * @see MPU9250_DEFAULT_ADDRESS
  53:mpu_9250.c    ****  * @see MPU9250_ADDRESS_AD0_LOW
  54:mpu_9250.c    ****  * @see MPU9250_ADDRESS_AD0_HIGH
  55:mpu_9250.c    ****  */
  56:mpu_9250.c    **** void I2C_MPU9250_I2CAddress(uint8_t address) {
  53              		.loc 1 56 0
  54              		.cfi_startproc
  55              		@ args = 0, pretend = 0, frame = 0
  56              		@ frame_needed = 0, uses_anonymous_args = 0
  57              		@ link register save eliminated.
  58              	.LVL0:
ARM GAS  C:\Users\hima\AppData\Local\Temp\ccR4vqcc.s 			page 3


  57:mpu_9250.c    ****     devAddr = address;
  59              		.loc 1 57 0
  60 0000 014B     		ldr	r3, .L5
  61 0002 1870     		strb	r0, [r3]
  62 0004 7047     		bx	lr
  63              	.L6:
  64 0006 00BF     		.align	2
  65              	.L5:
  66 0008 00000000 		.word	devAddr
  67              		.cfi_endproc
  68              	.LFE1:
  69              		.size	I2C_MPU9250_I2CAddress, .-I2C_MPU9250_I2CAddress
  70              		.section	.text.MPU9250_getAuxVDDIOLevel,"ax",%progbits
  71              		.align	2
  72              		.global	MPU9250_getAuxVDDIOLevel
  73              		.thumb
  74              		.thumb_func
  75              		.type	MPU9250_getAuxVDDIOLevel, %function
  76              	MPU9250_getAuxVDDIOLevel:
  77              	.LFB4:
  58:mpu_9250.c    **** }
  59:mpu_9250.c    **** 
  60:mpu_9250.c    **** /** Power on and prepare for general usage.
  61:mpu_9250.c    ****  * This will activate the device and take it out of sleep mode (which must be done
  62:mpu_9250.c    ****  * after start-up). This function also sets both the accelerometer and the gyroscope
  63:mpu_9250.c    ****  * to their most sensitive settings, namely +/- 2g and +/- 250 degrees/sec, and sets
  64:mpu_9250.c    ****  * the clock source to use the X Gyro for reference, which is slightly better than
  65:mpu_9250.c    ****  * the default internal clock source.
  66:mpu_9250.c    ****  */
  67:mpu_9250.c    **** void MPU9250_initialize() {
  68:mpu_9250.c    ****     MPU9250_setClockSource(MPU9250_CLOCK_PLL_XGYRO);
  69:mpu_9250.c    ****     I2CWriteByte(devAddr, MPU9250_RA_INT_PIN_CFG, 0x02); 
  70:mpu_9250.c    ****     MPU9250_setFullScaleGyroRange(MPU9250_GYRO_FS_250);
  71:mpu_9250.c    ****     MPU9250_setFullScaleAccelRange(MPU9250_ACCEL_FS_2);
  72:mpu_9250.c    ****     MPU9250_setSleepEnabled(false); // thanks to Jack Elston for pointing this one out!
  73:mpu_9250.c    **** }
  74:mpu_9250.c    **** 
  75:mpu_9250.c    **** /** Verify the I2C connection.
  76:mpu_9250.c    ****  * Make sure the device is connected and responds as expected.
  77:mpu_9250.c    ****  * @return True if connection is valid, false otherwise
  78:mpu_9250.c    ****  */
  79:mpu_9250.c    **** bool MPU9250_testConnection() {
  80:mpu_9250.c    ****     return MPU9250_getDeviceID() == 0x34;
  81:mpu_9250.c    **** }
  82:mpu_9250.c    **** 
  83:mpu_9250.c    **** // AUX_VDDIO register (InvenSense demo code calls this RA_*G_OFFS_TC)
  84:mpu_9250.c    **** 
  85:mpu_9250.c    **** /** Get the auxiliary I2C supply voltage level.
  86:mpu_9250.c    ****  * When set to 1, the auxiliary I2C bus high logic level is VDD. When cleared to
  87:mpu_9250.c    ****  * 0, the auxiliary I2C bus high logic level is VLOGIC. This does not apply to
  88:mpu_9250.c    ****  * the MPU-6000, which does not have a VLOGIC pin.
  89:mpu_9250.c    ****  * @return I2C supply voltage level (0=VLOGIC, 1=VDD)
  90:mpu_9250.c    ****  */
  91:mpu_9250.c    **** uint8_t MPU9250_getAuxVDDIOLevel() {
  78              		.loc 1 91 0
  79              		.cfi_startproc
  80              		@ args = 0, pretend = 0, frame = 0
ARM GAS  C:\Users\hima\AppData\Local\Temp\ccR4vqcc.s 			page 4


  81              		@ frame_needed = 0, uses_anonymous_args = 0
  82 0000 10B5     		push	{r4, lr}
  83              		.cfi_def_cfa_offset 8
  84              		.cfi_offset 4, -8
  85              		.cfi_offset 14, -4
  92:mpu_9250.c    ****     I2CReadBit(devAddr, MPU9250_RA_YG_OFFS_TC, MPU9250_TC_PWR_MODE_BIT, buffer);
  86              		.loc 1 92 0
  87 0002 054C     		ldr	r4, .L9
  88 0004 054B     		ldr	r3, .L9+4
  89 0006 1878     		ldrb	r0, [r3]	@ zero_extendqisi2
  90 0008 0121     		movs	r1, #1
  91 000a 0722     		movs	r2, #7
  92 000c 2346     		mov	r3, r4
  93 000e FFF7FEFF 		bl	I2CReadBit
  94              	.LVL1:
  93:mpu_9250.c    ****     return buffer[0];
  94:mpu_9250.c    **** }
  95              		.loc 1 94 0
  96 0012 2078     		ldrb	r0, [r4]	@ zero_extendqisi2
  97 0014 10BD     		pop	{r4, pc}
  98              	.L10:
  99 0016 00BF     		.align	2
 100              	.L9:
 101 0018 00000000 		.word	buffer
 102 001c 00000000 		.word	devAddr
 103              		.cfi_endproc
 104              	.LFE4:
 105              		.size	MPU9250_getAuxVDDIOLevel, .-MPU9250_getAuxVDDIOLevel
 106              		.section	.text.MPU9250_setAuxVDDIOLevel,"ax",%progbits
 107              		.align	2
 108              		.global	MPU9250_setAuxVDDIOLevel
 109              		.thumb
 110              		.thumb_func
 111              		.type	MPU9250_setAuxVDDIOLevel, %function
 112              	MPU9250_setAuxVDDIOLevel:
 113              	.LFB5:
  95:mpu_9250.c    **** /** Set the auxiliary I2C supply voltage level.
  96:mpu_9250.c    ****  * When set to 1, the auxiliary I2C bus high logic level is VDD. When cleared to
  97:mpu_9250.c    ****  * 0, the auxiliary I2C bus high logic level is VLOGIC. This does not apply to
  98:mpu_9250.c    ****  * the MPU-6000, which does not have a VLOGIC pin.
  99:mpu_9250.c    ****  * @param level I2C supply voltage level (0=VLOGIC, 1=VDD)
 100:mpu_9250.c    ****  */
 101:mpu_9250.c    **** void MPU9250_setAuxVDDIOLevel(uint8_t level) {
 114              		.loc 1 101 0
 115              		.cfi_startproc
 116              		@ args = 0, pretend = 0, frame = 0
 117              		@ frame_needed = 0, uses_anonymous_args = 0
 118              	.LVL2:
 119 0000 08B5     		push	{r3, lr}
 120              		.cfi_def_cfa_offset 8
 121              		.cfi_offset 3, -8
 122              		.cfi_offset 14, -4
 123 0002 0346     		mov	r3, r0
 102:mpu_9250.c    ****     I2CWriteBit(devAddr, MPU9250_RA_YG_OFFS_TC, MPU9250_TC_PWR_MODE_BIT, level);
 124              		.loc 1 102 0
 125 0004 034A     		ldr	r2, .L13
 126 0006 1078     		ldrb	r0, [r2]	@ zero_extendqisi2
ARM GAS  C:\Users\hima\AppData\Local\Temp\ccR4vqcc.s 			page 5


 127              	.LVL3:
 128 0008 0121     		movs	r1, #1
 129 000a 0722     		movs	r2, #7
 130 000c FFF7FEFF 		bl	I2CWriteBit
 131              	.LVL4:
 132 0010 08BD     		pop	{r3, pc}
 133              	.L14:
 134 0012 00BF     		.align	2
 135              	.L13:
 136 0014 00000000 		.word	devAddr
 137              		.cfi_endproc
 138              	.LFE5:
 139              		.size	MPU9250_setAuxVDDIOLevel, .-MPU9250_setAuxVDDIOLevel
 140              		.section	.text.MPU9250_getRate,"ax",%progbits
 141              		.align	2
 142              		.global	MPU9250_getRate
 143              		.thumb
 144              		.thumb_func
 145              		.type	MPU9250_getRate, %function
 146              	MPU9250_getRate:
 147              	.LFB6:
 103:mpu_9250.c    **** }
 104:mpu_9250.c    **** 
 105:mpu_9250.c    **** // SMPLRT_DIV register
 106:mpu_9250.c    **** 
 107:mpu_9250.c    **** /** Get gyroscope output rate divider.
 108:mpu_9250.c    ****  * The sensor register output, FIFO output, DMP sampling, Motion detection, Zero
 109:mpu_9250.c    ****  * Motion detection, and Free Fall detection are all based on the Sample Rate.
 110:mpu_9250.c    ****  * The Sample Rate is generated by dividing the gyroscope output rate by
 111:mpu_9250.c    ****  * SMPLRT_DIV:
 112:mpu_9250.c    ****  *
 113:mpu_9250.c    ****  * Sample Rate = Gyroscope Output Rate / (1 + SMPLRT_DIV)
 114:mpu_9250.c    ****  *
 115:mpu_9250.c    ****  * where Gyroscope Output Rate = 8kHz when the DLPF is disabled (DLPF_CFG = 0 or
 116:mpu_9250.c    ****  * 7), and 1kHz when the DLPF is enabled (see Register 26).
 117:mpu_9250.c    ****  *
 118:mpu_9250.c    ****  * Note: The accelerometer output rate is 1kHz. This means that for a Sample
 119:mpu_9250.c    ****  * Rate greater than 1kHz, the same accelerometer sample may be output to the
 120:mpu_9250.c    ****  * FIFO, DMP, and sensor registers more than once.
 121:mpu_9250.c    ****  *
 122:mpu_9250.c    ****  * For a diagram of the gyroscope and accelerometer signal paths, see Section 8
 123:mpu_9250.c    ****  * of the MPU-6000/MPU-9250 Product Specification document.
 124:mpu_9250.c    ****  *
 125:mpu_9250.c    ****  * @return Current sample rate
 126:mpu_9250.c    ****  * @see MPU9250_RA_SMPLRT_DIV
 127:mpu_9250.c    ****  */
 128:mpu_9250.c    **** uint8_t MPU9250_getRate() {
 148              		.loc 1 128 0
 149              		.cfi_startproc
 150              		@ args = 0, pretend = 0, frame = 0
 151              		@ frame_needed = 0, uses_anonymous_args = 0
 152 0000 10B5     		push	{r4, lr}
 153              		.cfi_def_cfa_offset 8
 154              		.cfi_offset 4, -8
 155              		.cfi_offset 14, -4
 129:mpu_9250.c    ****     I2CReadByte(devAddr, MPU9250_RA_SMPLRT_DIV, buffer);
 156              		.loc 1 129 0
ARM GAS  C:\Users\hima\AppData\Local\Temp\ccR4vqcc.s 			page 6


 157 0002 044C     		ldr	r4, .L17
 158 0004 044B     		ldr	r3, .L17+4
 159 0006 1878     		ldrb	r0, [r3]	@ zero_extendqisi2
 160 0008 1921     		movs	r1, #25
 161 000a 2246     		mov	r2, r4
 162 000c FFF7FEFF 		bl	I2CReadByte
 163              	.LVL5:
 130:mpu_9250.c    ****     return buffer[0];
 131:mpu_9250.c    **** }
 164              		.loc 1 131 0
 165 0010 2078     		ldrb	r0, [r4]	@ zero_extendqisi2
 166 0012 10BD     		pop	{r4, pc}
 167              	.L18:
 168              		.align	2
 169              	.L17:
 170 0014 00000000 		.word	buffer
 171 0018 00000000 		.word	devAddr
 172              		.cfi_endproc
 173              	.LFE6:
 174              		.size	MPU9250_getRate, .-MPU9250_getRate
 175              		.section	.text.MPU9250_setRate,"ax",%progbits
 176              		.align	2
 177              		.global	MPU9250_setRate
 178              		.thumb
 179              		.thumb_func
 180              		.type	MPU9250_setRate, %function
 181              	MPU9250_setRate:
 182              	.LFB7:
 132:mpu_9250.c    **** /** Set gyroscope sample rate divider.
 133:mpu_9250.c    ****  * @param rate New sample rate divider
 134:mpu_9250.c    ****  * @see getRate()
 135:mpu_9250.c    ****  * @see MPU9250_RA_SMPLRT_DIV
 136:mpu_9250.c    ****  */
 137:mpu_9250.c    **** void MPU9250_setRate(uint8_t rate) {
 183              		.loc 1 137 0
 184              		.cfi_startproc
 185              		@ args = 0, pretend = 0, frame = 0
 186              		@ frame_needed = 0, uses_anonymous_args = 0
 187              	.LVL6:
 188 0000 08B5     		push	{r3, lr}
 189              		.cfi_def_cfa_offset 8
 190              		.cfi_offset 3, -8
 191              		.cfi_offset 14, -4
 192 0002 0246     		mov	r2, r0
 138:mpu_9250.c    ****     I2CWriteByte(devAddr, MPU9250_RA_SMPLRT_DIV, rate);
 193              		.loc 1 138 0
 194 0004 024B     		ldr	r3, .L21
 195 0006 1878     		ldrb	r0, [r3]	@ zero_extendqisi2
 196              	.LVL7:
 197 0008 1921     		movs	r1, #25
 198 000a FFF7FEFF 		bl	I2CWriteByte
 199              	.LVL8:
 200 000e 08BD     		pop	{r3, pc}
 201              	.L22:
 202              		.align	2
 203              	.L21:
 204 0010 00000000 		.word	devAddr
ARM GAS  C:\Users\hima\AppData\Local\Temp\ccR4vqcc.s 			page 7


 205              		.cfi_endproc
 206              	.LFE7:
 207              		.size	MPU9250_setRate, .-MPU9250_setRate
 208              		.section	.text.MPU9250_getExternalFrameSync,"ax",%progbits
 209              		.align	2
 210              		.global	MPU9250_getExternalFrameSync
 211              		.thumb
 212              		.thumb_func
 213              		.type	MPU9250_getExternalFrameSync, %function
 214              	MPU9250_getExternalFrameSync:
 215              	.LFB8:
 139:mpu_9250.c    **** }
 140:mpu_9250.c    **** 
 141:mpu_9250.c    **** // CONFIG register
 142:mpu_9250.c    **** 
 143:mpu_9250.c    **** /** Get external FSYNC configuration.
 144:mpu_9250.c    ****  * Configures the external Frame Synchronization (FSYNC) pin sampling. An
 145:mpu_9250.c    ****  * external signal connected to the FSYNC pin can be sampled by configuring
 146:mpu_9250.c    ****  * EXT_SYNC_SET. Signal changes to the FSYNC pin are latched so that short
 147:mpu_9250.c    ****  * strobes may be captured. The latched FSYNC signal will be sampled at the
 148:mpu_9250.c    ****  * Sampling Rate, as defined in register 25. After sampling, the latch will
 149:mpu_9250.c    ****  * reset to the current FSYNC signal state.
 150:mpu_9250.c    ****  *
 151:mpu_9250.c    ****  * The sampled value will be reported in place of the least significant bit in
 152:mpu_9250.c    ****  * a sensor data register determined by the value of EXT_SYNC_SET according to
 153:mpu_9250.c    ****  * the following table.
 154:mpu_9250.c    ****  *
 155:mpu_9250.c    ****  * <pre>
 156:mpu_9250.c    ****  * EXT_SYNC_SET | FSYNC Bit Location
 157:mpu_9250.c    ****  * -------------+-------------------
 158:mpu_9250.c    ****  * 0            | Input disabled
 159:mpu_9250.c    ****  * 1            | TEMP_OUT_L[0]
 160:mpu_9250.c    ****  * 2            | GYRO_XOUT_L[0]
 161:mpu_9250.c    ****  * 3            | GYRO_YOUT_L[0]
 162:mpu_9250.c    ****  * 4            | GYRO_ZOUT_L[0]
 163:mpu_9250.c    ****  * 5            | ACCEL_XOUT_L[0]
 164:mpu_9250.c    ****  * 6            | ACCEL_YOUT_L[0]
 165:mpu_9250.c    ****  * 7            | ACCEL_ZOUT_L[0]
 166:mpu_9250.c    ****  * </pre>
 167:mpu_9250.c    ****  *
 168:mpu_9250.c    ****  * @return FSYNC configuration value
 169:mpu_9250.c    ****  */
 170:mpu_9250.c    **** uint8_t MPU9250_getExternalFrameSync() {
 216              		.loc 1 170 0
 217              		.cfi_startproc
 218              		@ args = 0, pretend = 0, frame = 0
 219              		@ frame_needed = 0, uses_anonymous_args = 0
 220 0000 10B5     		push	{r4, lr}
 221              		.cfi_def_cfa_offset 8
 222              		.cfi_offset 4, -8
 223              		.cfi_offset 14, -4
 224 0002 82B0     		sub	sp, sp, #8
 225              		.cfi_def_cfa_offset 16
 171:mpu_9250.c    ****     I2CReadBits(devAddr, MPU9250_RA_CONFIG, MPU9250_CFG_EXT_SYNC_SET_BIT, MPU9250_CFG_EXT_SYNC_SET_
 226              		.loc 1 171 0
 227 0004 054B     		ldr	r3, .L25
 228 0006 1878     		ldrb	r0, [r3]	@ zero_extendqisi2
ARM GAS  C:\Users\hima\AppData\Local\Temp\ccR4vqcc.s 			page 8


 229 0008 054C     		ldr	r4, .L25+4
 230 000a 0094     		str	r4, [sp]
 231 000c 1A21     		movs	r1, #26
 232 000e 0522     		movs	r2, #5
 233 0010 0323     		movs	r3, #3
 234 0012 FFF7FEFF 		bl	I2CReadBits
 235              	.LVL9:
 172:mpu_9250.c    ****     return buffer[0];
 173:mpu_9250.c    **** }
 236              		.loc 1 173 0
 237 0016 2078     		ldrb	r0, [r4]	@ zero_extendqisi2
 238 0018 02B0     		add	sp, sp, #8
 239              		.cfi_def_cfa_offset 8
 240              		@ sp needed
 241 001a 10BD     		pop	{r4, pc}
 242              	.L26:
 243              		.align	2
 244              	.L25:
 245 001c 00000000 		.word	devAddr
 246 0020 00000000 		.word	buffer
 247              		.cfi_endproc
 248              	.LFE8:
 249              		.size	MPU9250_getExternalFrameSync, .-MPU9250_getExternalFrameSync
 250              		.section	.text.MPU9250_setExternalFrameSync,"ax",%progbits
 251              		.align	2
 252              		.global	MPU9250_setExternalFrameSync
 253              		.thumb
 254              		.thumb_func
 255              		.type	MPU9250_setExternalFrameSync, %function
 256              	MPU9250_setExternalFrameSync:
 257              	.LFB9:
 174:mpu_9250.c    **** /** Set external FSYNC configuration.
 175:mpu_9250.c    ****  * @see getExternalFrameSync()
 176:mpu_9250.c    ****  * @see MPU9250_RA_CONFIG
 177:mpu_9250.c    ****  * @param sync New FSYNC configuration value
 178:mpu_9250.c    ****  */
 179:mpu_9250.c    **** void MPU9250_setExternalFrameSync(uint8_t sync) {
 258              		.loc 1 179 0
 259              		.cfi_startproc
 260              		@ args = 0, pretend = 0, frame = 0
 261              		@ frame_needed = 0, uses_anonymous_args = 0
 262              	.LVL10:
 263 0000 00B5     		push	{lr}
 264              		.cfi_def_cfa_offset 4
 265              		.cfi_offset 14, -4
 266 0002 83B0     		sub	sp, sp, #12
 267              		.cfi_def_cfa_offset 16
 180:mpu_9250.c    ****     I2CWriteBits(devAddr, MPU9250_RA_CONFIG, MPU9250_CFG_EXT_SYNC_SET_BIT, MPU9250_CFG_EXT_SYNC_SET
 268              		.loc 1 180 0
 269 0004 054B     		ldr	r3, .L29
 270 0006 1B78     		ldrb	r3, [r3]	@ zero_extendqisi2
 271 0008 0090     		str	r0, [sp]
 272 000a 1846     		mov	r0, r3
 273              	.LVL11:
 274 000c 1A21     		movs	r1, #26
 275 000e 0522     		movs	r2, #5
 276 0010 0323     		movs	r3, #3
ARM GAS  C:\Users\hima\AppData\Local\Temp\ccR4vqcc.s 			page 9


 277 0012 FFF7FEFF 		bl	I2CWriteBits
 278              	.LVL12:
 181:mpu_9250.c    **** }
 279              		.loc 1 181 0
 280 0016 03B0     		add	sp, sp, #12
 281              		.cfi_def_cfa_offset 4
 282              		@ sp needed
 283 0018 5DF804FB 		ldr	pc, [sp], #4
 284              	.L30:
 285              		.align	2
 286              	.L29:
 287 001c 00000000 		.word	devAddr
 288              		.cfi_endproc
 289              	.LFE9:
 290              		.size	MPU9250_setExternalFrameSync, .-MPU9250_setExternalFrameSync
 291              		.section	.text.MPU9250_getDLPFMode,"ax",%progbits
 292              		.align	2
 293              		.global	MPU9250_getDLPFMode
 294              		.thumb
 295              		.thumb_func
 296              		.type	MPU9250_getDLPFMode, %function
 297              	MPU9250_getDLPFMode:
 298              	.LFB10:
 182:mpu_9250.c    **** /** Get digital low-pass filter configuration.
 183:mpu_9250.c    ****  * The DLPF_CFG parameter sets the digital low pass filter configuration. It
 184:mpu_9250.c    ****  * also determines the internal sampling rate used by the device as shown in
 185:mpu_9250.c    ****  * the table below.
 186:mpu_9250.c    ****  *
 187:mpu_9250.c    ****  * Note: The accelerometer output rate is 1kHz. This means that for a Sample
 188:mpu_9250.c    ****  * Rate greater than 1kHz, the same accelerometer sample may be output to the
 189:mpu_9250.c    ****  * FIFO, DMP, and sensor registers more than once.
 190:mpu_9250.c    ****  *
 191:mpu_9250.c    ****  * <pre>
 192:mpu_9250.c    ****  *          |   ACCELEROMETER    |           GYROSCOPE
 193:mpu_9250.c    ****  * DLPF_CFG | Bandwidth | Delay  | Bandwidth | Delay  | Sample Rate
 194:mpu_9250.c    ****  * ---------+-----------+--------+-----------+--------+-------------
 195:mpu_9250.c    ****  * 0        | 260Hz     | 0ms    | 256Hz     | 0.98ms | 8kHz
 196:mpu_9250.c    ****  * 1        | 184Hz     | 2.0ms  | 188Hz     | 1.9ms  | 1kHz
 197:mpu_9250.c    ****  * 2        | 94Hz      | 3.0ms  | 98Hz      | 2.8ms  | 1kHz
 198:mpu_9250.c    ****  * 3        | 44Hz      | 4.9ms  | 42Hz      | 4.8ms  | 1kHz
 199:mpu_9250.c    ****  * 4        | 21Hz      | 8.5ms  | 20Hz      | 8.3ms  | 1kHz
 200:mpu_9250.c    ****  * 5        | 10Hz      | 13.8ms | 10Hz      | 13.4ms | 1kHz
 201:mpu_9250.c    ****  * 6        | 5Hz       | 19.0ms | 5Hz       | 18.6ms | 1kHz
 202:mpu_9250.c    ****  * 7        |   -- Reserved --   |   -- Reserved --   | Reserved
 203:mpu_9250.c    ****  * </pre>
 204:mpu_9250.c    ****  *
 205:mpu_9250.c    ****  * @return DLFP configuration
 206:mpu_9250.c    ****  * @see MPU9250_RA_CONFIG
 207:mpu_9250.c    ****  * @see MPU9250_CFG_DLPF_CFG_BIT
 208:mpu_9250.c    ****  * @see MPU9250_CFG_DLPF_CFG_LENGTH
 209:mpu_9250.c    ****  */
 210:mpu_9250.c    **** uint8_t MPU9250_getDLPFMode() {
 299              		.loc 1 210 0
 300              		.cfi_startproc
 301              		@ args = 0, pretend = 0, frame = 0
 302              		@ frame_needed = 0, uses_anonymous_args = 0
 303 0000 10B5     		push	{r4, lr}
ARM GAS  C:\Users\hima\AppData\Local\Temp\ccR4vqcc.s 			page 10


 304              		.cfi_def_cfa_offset 8
 305              		.cfi_offset 4, -8
 306              		.cfi_offset 14, -4
 307 0002 82B0     		sub	sp, sp, #8
 308              		.cfi_def_cfa_offset 16
 211:mpu_9250.c    ****     I2CReadBits(devAddr, MPU9250_RA_CONFIG, MPU9250_CFG_DLPF_CFG_BIT, MPU9250_CFG_DLPF_CFG_LENGTH, 
 309              		.loc 1 211 0
 310 0004 054B     		ldr	r3, .L33
 311 0006 1878     		ldrb	r0, [r3]	@ zero_extendqisi2
 312 0008 054C     		ldr	r4, .L33+4
 313 000a 0094     		str	r4, [sp]
 314 000c 1A21     		movs	r1, #26
 315 000e 0222     		movs	r2, #2
 316 0010 0323     		movs	r3, #3
 317 0012 FFF7FEFF 		bl	I2CReadBits
 318              	.LVL13:
 212:mpu_9250.c    ****     return buffer[0];
 213:mpu_9250.c    **** }
 319              		.loc 1 213 0
 320 0016 2078     		ldrb	r0, [r4]	@ zero_extendqisi2
 321 0018 02B0     		add	sp, sp, #8
 322              		.cfi_def_cfa_offset 8
 323              		@ sp needed
 324 001a 10BD     		pop	{r4, pc}
 325              	.L34:
 326              		.align	2
 327              	.L33:
 328 001c 00000000 		.word	devAddr
 329 0020 00000000 		.word	buffer
 330              		.cfi_endproc
 331              	.LFE10:
 332              		.size	MPU9250_getDLPFMode, .-MPU9250_getDLPFMode
 333              		.section	.text.MPU9250_setDLPFMode,"ax",%progbits
 334              		.align	2
 335              		.global	MPU9250_setDLPFMode
 336              		.thumb
 337              		.thumb_func
 338              		.type	MPU9250_setDLPFMode, %function
 339              	MPU9250_setDLPFMode:
 340              	.LFB11:
 214:mpu_9250.c    **** 
 215:mpu_9250.c    **** 
 216:mpu_9250.c    **** /** Set digital low-pass filter configuration.
 217:mpu_9250.c    ****  * @param mode New DLFP configuration setting
 218:mpu_9250.c    ****  * @see getDLPFBandwidth()
 219:mpu_9250.c    ****  * @see MPU9250_DLPF_BW_256
 220:mpu_9250.c    ****  * @see MPU9250_RA_CONFIG
 221:mpu_9250.c    ****  * @see MPU9250_CFG_DLPF_CFG_BIT
 222:mpu_9250.c    ****  * @see MPU9250_CFG_DLPF_CFG_LENGTH
 223:mpu_9250.c    ****  */
 224:mpu_9250.c    **** void MPU9250_setDLPFMode(uint8_t mode) {
 341              		.loc 1 224 0
 342              		.cfi_startproc
 343              		@ args = 0, pretend = 0, frame = 0
 344              		@ frame_needed = 0, uses_anonymous_args = 0
 345              	.LVL14:
 346 0000 00B5     		push	{lr}
ARM GAS  C:\Users\hima\AppData\Local\Temp\ccR4vqcc.s 			page 11


 347              		.cfi_def_cfa_offset 4
 348              		.cfi_offset 14, -4
 349 0002 83B0     		sub	sp, sp, #12
 350              		.cfi_def_cfa_offset 16
 225:mpu_9250.c    ****     I2CWriteBits(devAddr, MPU9250_RA_CONFIG, MPU9250_CFG_DLPF_CFG_BIT, MPU9250_CFG_DLPF_CFG_LENGTH,
 351              		.loc 1 225 0
 352 0004 054B     		ldr	r3, .L37
 353 0006 1B78     		ldrb	r3, [r3]	@ zero_extendqisi2
 354 0008 0090     		str	r0, [sp]
 355 000a 1846     		mov	r0, r3
 356              	.LVL15:
 357 000c 1A21     		movs	r1, #26
 358 000e 0222     		movs	r2, #2
 359 0010 0323     		movs	r3, #3
 360 0012 FFF7FEFF 		bl	I2CWriteBits
 361              	.LVL16:
 226:mpu_9250.c    **** }
 362              		.loc 1 226 0
 363 0016 03B0     		add	sp, sp, #12
 364              		.cfi_def_cfa_offset 4
 365              		@ sp needed
 366 0018 5DF804FB 		ldr	pc, [sp], #4
 367              	.L38:
 368              		.align	2
 369              	.L37:
 370 001c 00000000 		.word	devAddr
 371              		.cfi_endproc
 372              	.LFE11:
 373              		.size	MPU9250_setDLPFMode, .-MPU9250_setDLPFMode
 374              		.section	.text.MPU9250_set_A_DLPFMode,"ax",%progbits
 375              		.align	2
 376              		.global	MPU9250_set_A_DLPFMode
 377              		.thumb
 378              		.thumb_func
 379              		.type	MPU9250_set_A_DLPFMode, %function
 380              	MPU9250_set_A_DLPFMode:
 381              	.LFB12:
 227:mpu_9250.c    **** 
 228:mpu_9250.c    **** //Jobin Temp adding function for LPF accelerometer [MPU9250]
 229:mpu_9250.c    **** 
 230:mpu_9250.c    **** void MPU9250_set_A_DLPFMode(uint8_t mode) {
 382              		.loc 1 230 0
 383              		.cfi_startproc
 384              		@ args = 0, pretend = 0, frame = 0
 385              		@ frame_needed = 0, uses_anonymous_args = 0
 386              	.LVL17:
 387 0000 00B5     		push	{lr}
 388              		.cfi_def_cfa_offset 4
 389              		.cfi_offset 14, -4
 390 0002 83B0     		sub	sp, sp, #12
 391              		.cfi_def_cfa_offset 16
 231:mpu_9250.c    ****     I2CWriteBits(devAddr, 0x1D, MPU9250_CFG_DLPF_CFG_BIT, MPU9250_CFG_DLPF_CFG_LENGTH, mode);
 392              		.loc 1 231 0
 393 0004 054B     		ldr	r3, .L41
 394 0006 1B78     		ldrb	r3, [r3]	@ zero_extendqisi2
 395 0008 0090     		str	r0, [sp]
 396 000a 1846     		mov	r0, r3
ARM GAS  C:\Users\hima\AppData\Local\Temp\ccR4vqcc.s 			page 12


 397              	.LVL18:
 398 000c 1D21     		movs	r1, #29
 399 000e 0222     		movs	r2, #2
 400 0010 0323     		movs	r3, #3
 401 0012 FFF7FEFF 		bl	I2CWriteBits
 402              	.LVL19:
 232:mpu_9250.c    **** }
 403              		.loc 1 232 0
 404 0016 03B0     		add	sp, sp, #12
 405              		.cfi_def_cfa_offset 4
 406              		@ sp needed
 407 0018 5DF804FB 		ldr	pc, [sp], #4
 408              	.L42:
 409              		.align	2
 410              	.L41:
 411 001c 00000000 		.word	devAddr
 412              		.cfi_endproc
 413              	.LFE12:
 414              		.size	MPU9250_set_A_DLPFMode, .-MPU9250_set_A_DLPFMode
 415              		.section	.text.MPU9250_getFullScaleGyroRange,"ax",%progbits
 416              		.align	2
 417              		.global	MPU9250_getFullScaleGyroRange
 418              		.thumb
 419              		.thumb_func
 420              		.type	MPU9250_getFullScaleGyroRange, %function
 421              	MPU9250_getFullScaleGyroRange:
 422              	.LFB13:
 233:mpu_9250.c    **** 
 234:mpu_9250.c    **** // GYRO_CONFIG register
 235:mpu_9250.c    **** 
 236:mpu_9250.c    **** /** Get full-scale gyroscope range.
 237:mpu_9250.c    ****  * The FS_SEL parameter allows setting the full-scale range of the gyro sensors,
 238:mpu_9250.c    ****  * as described in the table below.
 239:mpu_9250.c    ****  *
 240:mpu_9250.c    ****  * <pre>
 241:mpu_9250.c    ****  * 0 = +/- 250 degrees/sec
 242:mpu_9250.c    ****  * 1 = +/- 500 degrees/sec
 243:mpu_9250.c    ****  * 2 = +/- 1000 degrees/sec
 244:mpu_9250.c    ****  * 3 = +/- 2000 degrees/sec
 245:mpu_9250.c    ****  * </pre>
 246:mpu_9250.c    ****  *
 247:mpu_9250.c    ****  * @return Current full-scale gyroscope range setting
 248:mpu_9250.c    ****  * @see MPU9250_GYRO_FS_250
 249:mpu_9250.c    ****  * @see MPU9250_RA_GYRO_CONFIG
 250:mpu_9250.c    ****  * @see MPU9250_GCONFIG_FS_SEL_BIT
 251:mpu_9250.c    ****  * @see MPU9250_GCONFIG_FS_SEL_LENGTH
 252:mpu_9250.c    ****  */
 253:mpu_9250.c    **** uint8_t MPU9250_getFullScaleGyroRange() {
 423              		.loc 1 253 0
 424              		.cfi_startproc
 425              		@ args = 0, pretend = 0, frame = 0
 426              		@ frame_needed = 0, uses_anonymous_args = 0
 427 0000 10B5     		push	{r4, lr}
 428              		.cfi_def_cfa_offset 8
 429              		.cfi_offset 4, -8
 430              		.cfi_offset 14, -4
 431 0002 82B0     		sub	sp, sp, #8
ARM GAS  C:\Users\hima\AppData\Local\Temp\ccR4vqcc.s 			page 13


 432              		.cfi_def_cfa_offset 16
 254:mpu_9250.c    ****     I2CReadBits(devAddr, MPU9250_RA_GYRO_CONFIG, MPU9250_GCONFIG_FS_SEL_BIT, MPU9250_GCONFIG_FS_SEL
 433              		.loc 1 254 0
 434 0004 054B     		ldr	r3, .L45
 435 0006 1878     		ldrb	r0, [r3]	@ zero_extendqisi2
 436 0008 054C     		ldr	r4, .L45+4
 437 000a 0094     		str	r4, [sp]
 438 000c 1B21     		movs	r1, #27
 439 000e 0422     		movs	r2, #4
 440 0010 0223     		movs	r3, #2
 441 0012 FFF7FEFF 		bl	I2CReadBits
 442              	.LVL20:
 255:mpu_9250.c    ****     return buffer[0];
 256:mpu_9250.c    **** }
 443              		.loc 1 256 0
 444 0016 2078     		ldrb	r0, [r4]	@ zero_extendqisi2
 445 0018 02B0     		add	sp, sp, #8
 446              		.cfi_def_cfa_offset 8
 447              		@ sp needed
 448 001a 10BD     		pop	{r4, pc}
 449              	.L46:
 450              		.align	2
 451              	.L45:
 452 001c 00000000 		.word	devAddr
 453 0020 00000000 		.word	buffer
 454              		.cfi_endproc
 455              	.LFE13:
 456              		.size	MPU9250_getFullScaleGyroRange, .-MPU9250_getFullScaleGyroRange
 457              		.section	.text.MPU9250_setFullScaleGyroRange,"ax",%progbits
 458              		.align	2
 459              		.global	MPU9250_setFullScaleGyroRange
 460              		.thumb
 461              		.thumb_func
 462              		.type	MPU9250_setFullScaleGyroRange, %function
 463              	MPU9250_setFullScaleGyroRange:
 464              	.LFB14:
 257:mpu_9250.c    **** /** Set full-scale gyroscope range.
 258:mpu_9250.c    ****  * @param range New full-scale gyroscope range value
 259:mpu_9250.c    ****  * @see getFullScaleRange()
 260:mpu_9250.c    ****  * @see MPU9250_GYRO_FS_250
 261:mpu_9250.c    ****  * @see MPU9250_RA_GYRO_CONFIG
 262:mpu_9250.c    ****  * @see MPU9250_GCONFIG_FS_SEL_BIT
 263:mpu_9250.c    ****  * @see MPU9250_GCONFIG_FS_SEL_LENGTH
 264:mpu_9250.c    ****  */
 265:mpu_9250.c    **** void MPU9250_setFullScaleGyroRange(uint8_t range) {
 465              		.loc 1 265 0
 466              		.cfi_startproc
 467              		@ args = 0, pretend = 0, frame = 0
 468              		@ frame_needed = 0, uses_anonymous_args = 0
 469              	.LVL21:
 470 0000 00B5     		push	{lr}
 471              		.cfi_def_cfa_offset 4
 472              		.cfi_offset 14, -4
 473 0002 83B0     		sub	sp, sp, #12
 474              		.cfi_def_cfa_offset 16
 266:mpu_9250.c    ****     I2CWriteBits(devAddr, MPU9250_RA_GYRO_CONFIG, MPU9250_GCONFIG_FS_SEL_BIT, MPU9250_GCONFIG_FS_SE
 475              		.loc 1 266 0
ARM GAS  C:\Users\hima\AppData\Local\Temp\ccR4vqcc.s 			page 14


 476 0004 054B     		ldr	r3, .L49
 477 0006 1B78     		ldrb	r3, [r3]	@ zero_extendqisi2
 478 0008 0090     		str	r0, [sp]
 479 000a 1846     		mov	r0, r3
 480              	.LVL22:
 481 000c 1B21     		movs	r1, #27
 482 000e 0422     		movs	r2, #4
 483 0010 0223     		movs	r3, #2
 484 0012 FFF7FEFF 		bl	I2CWriteBits
 485              	.LVL23:
 267:mpu_9250.c    **** }
 486              		.loc 1 267 0
 487 0016 03B0     		add	sp, sp, #12
 488              		.cfi_def_cfa_offset 4
 489              		@ sp needed
 490 0018 5DF804FB 		ldr	pc, [sp], #4
 491              	.L50:
 492              		.align	2
 493              	.L49:
 494 001c 00000000 		.word	devAddr
 495              		.cfi_endproc
 496              	.LFE14:
 497              		.size	MPU9250_setFullScaleGyroRange, .-MPU9250_setFullScaleGyroRange
 498              		.section	.text.MPU9250_getAccelXSelfTest,"ax",%progbits
 499              		.align	2
 500              		.global	MPU9250_getAccelXSelfTest
 501              		.thumb
 502              		.thumb_func
 503              		.type	MPU9250_getAccelXSelfTest, %function
 504              	MPU9250_getAccelXSelfTest:
 505              	.LFB15:
 268:mpu_9250.c    **** 
 269:mpu_9250.c    **** // ACCEL_CONFIG register
 270:mpu_9250.c    **** 
 271:mpu_9250.c    **** /** Get self-test enabled setting for accelerometer X axis.
 272:mpu_9250.c    ****  * @return Self-test enabled value
 273:mpu_9250.c    ****  * @see MPU9250_RA_ACCEL_CONFIG
 274:mpu_9250.c    ****  */
 275:mpu_9250.c    **** bool MPU9250_getAccelXSelfTest() {
 506              		.loc 1 275 0
 507              		.cfi_startproc
 508              		@ args = 0, pretend = 0, frame = 0
 509              		@ frame_needed = 0, uses_anonymous_args = 0
 510 0000 10B5     		push	{r4, lr}
 511              		.cfi_def_cfa_offset 8
 512              		.cfi_offset 4, -8
 513              		.cfi_offset 14, -4
 276:mpu_9250.c    ****     I2CReadBit(devAddr, MPU9250_RA_ACCEL_CONFIG, MPU9250_ACONFIG_XA_ST_BIT, buffer);
 514              		.loc 1 276 0
 515 0002 064C     		ldr	r4, .L53
 516 0004 064B     		ldr	r3, .L53+4
 517 0006 1878     		ldrb	r0, [r3]	@ zero_extendqisi2
 518 0008 1C21     		movs	r1, #28
 519 000a 0722     		movs	r2, #7
 520 000c 2346     		mov	r3, r4
 521 000e FFF7FEFF 		bl	I2CReadBit
 522              	.LVL24:
ARM GAS  C:\Users\hima\AppData\Local\Temp\ccR4vqcc.s 			page 15


 277:mpu_9250.c    ****     return buffer[0];
 523              		.loc 1 277 0
 524 0012 2078     		ldrb	r0, [r4]	@ zero_extendqisi2
 278:mpu_9250.c    **** }
 525              		.loc 1 278 0
 526 0014 0030     		adds	r0, r0, #0
 527 0016 18BF     		it	ne
 528 0018 0120     		movne	r0, #1
 529 001a 10BD     		pop	{r4, pc}
 530              	.L54:
 531              		.align	2
 532              	.L53:
 533 001c 00000000 		.word	buffer
 534 0020 00000000 		.word	devAddr
 535              		.cfi_endproc
 536              	.LFE15:
 537              		.size	MPU9250_getAccelXSelfTest, .-MPU9250_getAccelXSelfTest
 538              		.section	.text.MPU9250_setAccelXSelfTest,"ax",%progbits
 539              		.align	2
 540              		.global	MPU9250_setAccelXSelfTest
 541              		.thumb
 542              		.thumb_func
 543              		.type	MPU9250_setAccelXSelfTest, %function
 544              	MPU9250_setAccelXSelfTest:
 545              	.LFB16:
 279:mpu_9250.c    **** /** Set self-test enabled setting for accelerometer X axis.
 280:mpu_9250.c    ****  * @param enabled Self-test enabled value
 281:mpu_9250.c    ****  * @see MPU9250_RA_ACCEL_CONFIG
 282:mpu_9250.c    ****  */
 283:mpu_9250.c    **** void MPU9250_setAccelXSelfTest(bool enabled) {
 546              		.loc 1 283 0
 547              		.cfi_startproc
 548              		@ args = 0, pretend = 0, frame = 0
 549              		@ frame_needed = 0, uses_anonymous_args = 0
 550              	.LVL25:
 551 0000 08B5     		push	{r3, lr}
 552              		.cfi_def_cfa_offset 8
 553              		.cfi_offset 3, -8
 554              		.cfi_offset 14, -4
 555 0002 0346     		mov	r3, r0
 284:mpu_9250.c    ****     I2CWriteBit(devAddr, MPU9250_RA_ACCEL_CONFIG, MPU9250_ACONFIG_XA_ST_BIT, enabled);
 556              		.loc 1 284 0
 557 0004 034A     		ldr	r2, .L57
 558 0006 1078     		ldrb	r0, [r2]	@ zero_extendqisi2
 559              	.LVL26:
 560 0008 1C21     		movs	r1, #28
 561 000a 0722     		movs	r2, #7
 562 000c FFF7FEFF 		bl	I2CWriteBit
 563              	.LVL27:
 564 0010 08BD     		pop	{r3, pc}
 565              	.L58:
 566 0012 00BF     		.align	2
 567              	.L57:
 568 0014 00000000 		.word	devAddr
 569              		.cfi_endproc
 570              	.LFE16:
 571              		.size	MPU9250_setAccelXSelfTest, .-MPU9250_setAccelXSelfTest
ARM GAS  C:\Users\hima\AppData\Local\Temp\ccR4vqcc.s 			page 16


 572              		.section	.text.MPU9250_getAccelYSelfTest,"ax",%progbits
 573              		.align	2
 574              		.global	MPU9250_getAccelYSelfTest
 575              		.thumb
 576              		.thumb_func
 577              		.type	MPU9250_getAccelYSelfTest, %function
 578              	MPU9250_getAccelYSelfTest:
 579              	.LFB17:
 285:mpu_9250.c    **** }
 286:mpu_9250.c    **** /** Get self-test enabled value for accelerometer Y axis.
 287:mpu_9250.c    ****  * @return Self-test enabled value
 288:mpu_9250.c    ****  * @see MPU9250_RA_ACCEL_CONFIG
 289:mpu_9250.c    ****  */
 290:mpu_9250.c    **** bool MPU9250_getAccelYSelfTest() {
 580              		.loc 1 290 0
 581              		.cfi_startproc
 582              		@ args = 0, pretend = 0, frame = 0
 583              		@ frame_needed = 0, uses_anonymous_args = 0
 584 0000 10B5     		push	{r4, lr}
 585              		.cfi_def_cfa_offset 8
 586              		.cfi_offset 4, -8
 587              		.cfi_offset 14, -4
 291:mpu_9250.c    ****     I2CReadBit(devAddr, MPU9250_RA_ACCEL_CONFIG, MPU9250_ACONFIG_YA_ST_BIT, buffer);
 588              		.loc 1 291 0
 589 0002 064C     		ldr	r4, .L61
 590 0004 064B     		ldr	r3, .L61+4
 591 0006 1878     		ldrb	r0, [r3]	@ zero_extendqisi2
 592 0008 1C21     		movs	r1, #28
 593 000a 0622     		movs	r2, #6
 594 000c 2346     		mov	r3, r4
 595 000e FFF7FEFF 		bl	I2CReadBit
 596              	.LVL28:
 292:mpu_9250.c    ****     return buffer[0];
 597              		.loc 1 292 0
 598 0012 2078     		ldrb	r0, [r4]	@ zero_extendqisi2
 293:mpu_9250.c    **** }
 599              		.loc 1 293 0
 600 0014 0030     		adds	r0, r0, #0
 601 0016 18BF     		it	ne
 602 0018 0120     		movne	r0, #1
 603 001a 10BD     		pop	{r4, pc}
 604              	.L62:
 605              		.align	2
 606              	.L61:
 607 001c 00000000 		.word	buffer
 608 0020 00000000 		.word	devAddr
 609              		.cfi_endproc
 610              	.LFE17:
 611              		.size	MPU9250_getAccelYSelfTest, .-MPU9250_getAccelYSelfTest
 612              		.section	.text.MPU9250_setAccelYSelfTest,"ax",%progbits
 613              		.align	2
 614              		.global	MPU9250_setAccelYSelfTest
 615              		.thumb
 616              		.thumb_func
 617              		.type	MPU9250_setAccelYSelfTest, %function
 618              	MPU9250_setAccelYSelfTest:
 619              	.LFB18:
ARM GAS  C:\Users\hima\AppData\Local\Temp\ccR4vqcc.s 			page 17


 294:mpu_9250.c    **** /** Set self-test enabled value for accelerometer Y axis.
 295:mpu_9250.c    ****  * @param enabled Self-test enabled value
 296:mpu_9250.c    ****  * @see MPU9250_RA_ACCEL_CONFIG
 297:mpu_9250.c    ****  */
 298:mpu_9250.c    **** void MPU9250_setAccelYSelfTest(bool enabled) {
 620              		.loc 1 298 0
 621              		.cfi_startproc
 622              		@ args = 0, pretend = 0, frame = 0
 623              		@ frame_needed = 0, uses_anonymous_args = 0
 624              	.LVL29:
 625 0000 08B5     		push	{r3, lr}
 626              		.cfi_def_cfa_offset 8
 627              		.cfi_offset 3, -8
 628              		.cfi_offset 14, -4
 629 0002 0346     		mov	r3, r0
 299:mpu_9250.c    ****     I2CWriteBit(devAddr, MPU9250_RA_ACCEL_CONFIG, MPU9250_ACONFIG_YA_ST_BIT, enabled);
 630              		.loc 1 299 0
 631 0004 034A     		ldr	r2, .L65
 632 0006 1078     		ldrb	r0, [r2]	@ zero_extendqisi2
 633              	.LVL30:
 634 0008 1C21     		movs	r1, #28
 635 000a 0622     		movs	r2, #6
 636 000c FFF7FEFF 		bl	I2CWriteBit
 637              	.LVL31:
 638 0010 08BD     		pop	{r3, pc}
 639              	.L66:
 640 0012 00BF     		.align	2
 641              	.L65:
 642 0014 00000000 		.word	devAddr
 643              		.cfi_endproc
 644              	.LFE18:
 645              		.size	MPU9250_setAccelYSelfTest, .-MPU9250_setAccelYSelfTest
 646              		.section	.text.MPU9250_getAccelZSelfTest,"ax",%progbits
 647              		.align	2
 648              		.global	MPU9250_getAccelZSelfTest
 649              		.thumb
 650              		.thumb_func
 651              		.type	MPU9250_getAccelZSelfTest, %function
 652              	MPU9250_getAccelZSelfTest:
 653              	.LFB19:
 300:mpu_9250.c    **** }
 301:mpu_9250.c    **** /** Get self-test enabled value for accelerometer Z axis.
 302:mpu_9250.c    ****  * @return Self-test enabled value
 303:mpu_9250.c    ****  * @see MPU9250_RA_ACCEL_CONFIG
 304:mpu_9250.c    ****  */
 305:mpu_9250.c    **** bool MPU9250_getAccelZSelfTest() {
 654              		.loc 1 305 0
 655              		.cfi_startproc
 656              		@ args = 0, pretend = 0, frame = 0
 657              		@ frame_needed = 0, uses_anonymous_args = 0
 658 0000 10B5     		push	{r4, lr}
 659              		.cfi_def_cfa_offset 8
 660              		.cfi_offset 4, -8
 661              		.cfi_offset 14, -4
 306:mpu_9250.c    ****     I2CReadBit(devAddr, MPU9250_RA_ACCEL_CONFIG, MPU9250_ACONFIG_ZA_ST_BIT, buffer);
 662              		.loc 1 306 0
 663 0002 064C     		ldr	r4, .L69
ARM GAS  C:\Users\hima\AppData\Local\Temp\ccR4vqcc.s 			page 18


 664 0004 064B     		ldr	r3, .L69+4
 665 0006 1878     		ldrb	r0, [r3]	@ zero_extendqisi2
 666 0008 1C21     		movs	r1, #28
 667 000a 0522     		movs	r2, #5
 668 000c 2346     		mov	r3, r4
 669 000e FFF7FEFF 		bl	I2CReadBit
 670              	.LVL32:
 307:mpu_9250.c    ****     return buffer[0];
 671              		.loc 1 307 0
 672 0012 2078     		ldrb	r0, [r4]	@ zero_extendqisi2
 308:mpu_9250.c    **** }
 673              		.loc 1 308 0
 674 0014 0030     		adds	r0, r0, #0
 675 0016 18BF     		it	ne
 676 0018 0120     		movne	r0, #1
 677 001a 10BD     		pop	{r4, pc}
 678              	.L70:
 679              		.align	2
 680              	.L69:
 681 001c 00000000 		.word	buffer
 682 0020 00000000 		.word	devAddr
 683              		.cfi_endproc
 684              	.LFE19:
 685              		.size	MPU9250_getAccelZSelfTest, .-MPU9250_getAccelZSelfTest
 686              		.section	.text.MPU9250_setAccelZSelfTest,"ax",%progbits
 687              		.align	2
 688              		.global	MPU9250_setAccelZSelfTest
 689              		.thumb
 690              		.thumb_func
 691              		.type	MPU9250_setAccelZSelfTest, %function
 692              	MPU9250_setAccelZSelfTest:
 693              	.LFB20:
 309:mpu_9250.c    **** /** Set self-test enabled value for accelerometer Z axis.
 310:mpu_9250.c    ****  * @param enabled Self-test enabled value
 311:mpu_9250.c    ****  * @see MPU9250_RA_ACCEL_CONFIG
 312:mpu_9250.c    ****  */
 313:mpu_9250.c    **** void MPU9250_setAccelZSelfTest(bool enabled) {
 694              		.loc 1 313 0
 695              		.cfi_startproc
 696              		@ args = 0, pretend = 0, frame = 0
 697              		@ frame_needed = 0, uses_anonymous_args = 0
 698              	.LVL33:
 699 0000 08B5     		push	{r3, lr}
 700              		.cfi_def_cfa_offset 8
 701              		.cfi_offset 3, -8
 702              		.cfi_offset 14, -4
 703 0002 0346     		mov	r3, r0
 314:mpu_9250.c    ****     I2CWriteBit(devAddr, MPU9250_RA_ACCEL_CONFIG, MPU9250_ACONFIG_ZA_ST_BIT, enabled);
 704              		.loc 1 314 0
 705 0004 034A     		ldr	r2, .L73
 706 0006 1078     		ldrb	r0, [r2]	@ zero_extendqisi2
 707              	.LVL34:
 708 0008 1C21     		movs	r1, #28
 709 000a 0522     		movs	r2, #5
 710 000c FFF7FEFF 		bl	I2CWriteBit
 711              	.LVL35:
 712 0010 08BD     		pop	{r3, pc}
ARM GAS  C:\Users\hima\AppData\Local\Temp\ccR4vqcc.s 			page 19


 713              	.L74:
 714 0012 00BF     		.align	2
 715              	.L73:
 716 0014 00000000 		.word	devAddr
 717              		.cfi_endproc
 718              	.LFE20:
 719              		.size	MPU9250_setAccelZSelfTest, .-MPU9250_setAccelZSelfTest
 720              		.section	.text.MPU9250_getFullScaleAccelRange,"ax",%progbits
 721              		.align	2
 722              		.global	MPU9250_getFullScaleAccelRange
 723              		.thumb
 724              		.thumb_func
 725              		.type	MPU9250_getFullScaleAccelRange, %function
 726              	MPU9250_getFullScaleAccelRange:
 727              	.LFB21:
 315:mpu_9250.c    **** }
 316:mpu_9250.c    **** /** Get full-scale accelerometer range.
 317:mpu_9250.c    ****  * The FS_SEL parameter allows setting the full-scale range of the accelerometer
 318:mpu_9250.c    ****  * sensors, as described in the table below.
 319:mpu_9250.c    ****  *
 320:mpu_9250.c    ****  * <pre>
 321:mpu_9250.c    ****  * 0 = +/- 2g
 322:mpu_9250.c    ****  * 1 = +/- 4g
 323:mpu_9250.c    ****  * 2 = +/- 8g
 324:mpu_9250.c    ****  * 3 = +/- 16g
 325:mpu_9250.c    ****  * </pre>
 326:mpu_9250.c    ****  *
 327:mpu_9250.c    ****  * @return Current full-scale accelerometer range setting
 328:mpu_9250.c    ****  * @see MPU9250_ACCEL_FS_2
 329:mpu_9250.c    ****  * @see MPU9250_RA_ACCEL_CONFIG
 330:mpu_9250.c    ****  * @see MPU9250_ACONFIG_AFS_SEL_BIT
 331:mpu_9250.c    ****  * @see MPU9250_ACONFIG_AFS_SEL_LENGTH
 332:mpu_9250.c    ****  */
 333:mpu_9250.c    **** uint8_t MPU9250_getFullScaleAccelRange() {
 728              		.loc 1 333 0
 729              		.cfi_startproc
 730              		@ args = 0, pretend = 0, frame = 0
 731              		@ frame_needed = 0, uses_anonymous_args = 0
 732 0000 10B5     		push	{r4, lr}
 733              		.cfi_def_cfa_offset 8
 734              		.cfi_offset 4, -8
 735              		.cfi_offset 14, -4
 736 0002 82B0     		sub	sp, sp, #8
 737              		.cfi_def_cfa_offset 16
 334:mpu_9250.c    ****     I2CReadBits(devAddr, MPU9250_RA_ACCEL_CONFIG, MPU9250_ACONFIG_AFS_SEL_BIT, MPU9250_ACONFIG_AFS_
 738              		.loc 1 334 0
 739 0004 054B     		ldr	r3, .L77
 740 0006 1878     		ldrb	r0, [r3]	@ zero_extendqisi2
 741 0008 054C     		ldr	r4, .L77+4
 742 000a 0094     		str	r4, [sp]
 743 000c 1C21     		movs	r1, #28
 744 000e 0422     		movs	r2, #4
 745 0010 0223     		movs	r3, #2
 746 0012 FFF7FEFF 		bl	I2CReadBits
 747              	.LVL36:
 335:mpu_9250.c    ****     return buffer[0];
 336:mpu_9250.c    **** }
ARM GAS  C:\Users\hima\AppData\Local\Temp\ccR4vqcc.s 			page 20


 748              		.loc 1 336 0
 749 0016 2078     		ldrb	r0, [r4]	@ zero_extendqisi2
 750 0018 02B0     		add	sp, sp, #8
 751              		.cfi_def_cfa_offset 8
 752              		@ sp needed
 753 001a 10BD     		pop	{r4, pc}
 754              	.L78:
 755              		.align	2
 756              	.L77:
 757 001c 00000000 		.word	devAddr
 758 0020 00000000 		.word	buffer
 759              		.cfi_endproc
 760              	.LFE21:
 761              		.size	MPU9250_getFullScaleAccelRange, .-MPU9250_getFullScaleAccelRange
 762              		.section	.text.MPU9250_setFullScaleAccelRange,"ax",%progbits
 763              		.align	2
 764              		.global	MPU9250_setFullScaleAccelRange
 765              		.thumb
 766              		.thumb_func
 767              		.type	MPU9250_setFullScaleAccelRange, %function
 768              	MPU9250_setFullScaleAccelRange:
 769              	.LFB22:
 337:mpu_9250.c    **** /** Set full-scale accelerometer range.
 338:mpu_9250.c    ****  * @param range New full-scale accelerometer range setting
 339:mpu_9250.c    ****  * @see getFullScaleAccelRange()
 340:mpu_9250.c    ****  */
 341:mpu_9250.c    **** void MPU9250_setFullScaleAccelRange(uint8_t range) {
 770              		.loc 1 341 0
 771              		.cfi_startproc
 772              		@ args = 0, pretend = 0, frame = 0
 773              		@ frame_needed = 0, uses_anonymous_args = 0
 774              	.LVL37:
 775 0000 00B5     		push	{lr}
 776              		.cfi_def_cfa_offset 4
 777              		.cfi_offset 14, -4
 778 0002 83B0     		sub	sp, sp, #12
 779              		.cfi_def_cfa_offset 16
 342:mpu_9250.c    ****     I2CWriteBits(devAddr, MPU9250_RA_ACCEL_CONFIG, MPU9250_ACONFIG_AFS_SEL_BIT, MPU9250_ACONFIG_AFS
 780              		.loc 1 342 0
 781 0004 054B     		ldr	r3, .L81
 782 0006 1B78     		ldrb	r3, [r3]	@ zero_extendqisi2
 783 0008 0090     		str	r0, [sp]
 784 000a 1846     		mov	r0, r3
 785              	.LVL38:
 786 000c 1C21     		movs	r1, #28
 787 000e 0422     		movs	r2, #4
 788 0010 0223     		movs	r3, #2
 789 0012 FFF7FEFF 		bl	I2CWriteBits
 790              	.LVL39:
 343:mpu_9250.c    **** }
 791              		.loc 1 343 0
 792 0016 03B0     		add	sp, sp, #12
 793              		.cfi_def_cfa_offset 4
 794              		@ sp needed
 795 0018 5DF804FB 		ldr	pc, [sp], #4
 796              	.L82:
 797              		.align	2
ARM GAS  C:\Users\hima\AppData\Local\Temp\ccR4vqcc.s 			page 21


 798              	.L81:
 799 001c 00000000 		.word	devAddr
 800              		.cfi_endproc
 801              	.LFE22:
 802              		.size	MPU9250_setFullScaleAccelRange, .-MPU9250_setFullScaleAccelRange
 803              		.section	.text.MPU9250_getDHPFMode,"ax",%progbits
 804              		.align	2
 805              		.global	MPU9250_getDHPFMode
 806              		.thumb
 807              		.thumb_func
 808              		.type	MPU9250_getDHPFMode, %function
 809              	MPU9250_getDHPFMode:
 810              	.LFB23:
 344:mpu_9250.c    **** /** Get the high-pass filter configuration.
 345:mpu_9250.c    ****  * The DHPF is a filter module in the path leading to motion detectors (Free
 346:mpu_9250.c    ****  * Fall, Motion threshold, and Zero Motion). The high pass filter output is not
 347:mpu_9250.c    ****  * available to the data registers (see Figure in Section 8 of the MPU-6000/
 348:mpu_9250.c    ****  * MPU-9250 Product Specification document).
 349:mpu_9250.c    ****  *
 350:mpu_9250.c    ****  * The high pass filter has three modes:
 351:mpu_9250.c    ****  *
 352:mpu_9250.c    ****  * <pre>
 353:mpu_9250.c    ****  *    Reset: The filter output settles to zero within one sample. This
 354:mpu_9250.c    ****  *           effectively disables the high pass filter. This mode may be toggled
 355:mpu_9250.c    ****  *           to quickly settle the filter.
 356:mpu_9250.c    ****  *
 357:mpu_9250.c    ****  *    On:    The high pass filter will pass signals above the cut off frequency.
 358:mpu_9250.c    ****  *
 359:mpu_9250.c    ****  *    Hold:  When triggered, the filter holds the present sample. The filter
 360:mpu_9250.c    ****  *           output will be the difference between the input sample and the held
 361:mpu_9250.c    ****  *           sample.
 362:mpu_9250.c    ****  * </pre>
 363:mpu_9250.c    ****  *
 364:mpu_9250.c    ****  * <pre>
 365:mpu_9250.c    ****  * ACCEL_HPF | Filter Mode | Cut-off Frequency
 366:mpu_9250.c    ****  * ----------+-------------+------------------
 367:mpu_9250.c    ****  * 0         | Reset       | None
 368:mpu_9250.c    ****  * 1         | On          | 5Hz
 369:mpu_9250.c    ****  * 2         | On          | 2.5Hz
 370:mpu_9250.c    ****  * 3         | On          | 1.25Hz
 371:mpu_9250.c    ****  * 4         | On          | 0.63Hz
 372:mpu_9250.c    ****  * 7         | Hold        | None
 373:mpu_9250.c    ****  * </pre>
 374:mpu_9250.c    ****  *
 375:mpu_9250.c    ****  * @return Current high-pass filter configuration
 376:mpu_9250.c    ****  * @see MPU9250_DHPF_RESET
 377:mpu_9250.c    ****  * @see MPU9250_RA_ACCEL_CONFIG
 378:mpu_9250.c    ****  */
 379:mpu_9250.c    **** uint8_t MPU9250_getDHPFMode() {
 811              		.loc 1 379 0
 812              		.cfi_startproc
 813              		@ args = 0, pretend = 0, frame = 0
 814              		@ frame_needed = 0, uses_anonymous_args = 0
 815 0000 10B5     		push	{r4, lr}
 816              		.cfi_def_cfa_offset 8
 817              		.cfi_offset 4, -8
 818              		.cfi_offset 14, -4
ARM GAS  C:\Users\hima\AppData\Local\Temp\ccR4vqcc.s 			page 22


 819 0002 82B0     		sub	sp, sp, #8
 820              		.cfi_def_cfa_offset 16
 380:mpu_9250.c    ****     I2CReadBits(devAddr, MPU9250_RA_ACCEL_CONFIG, MPU9250_ACONFIG_ACCEL_HPF_BIT, MPU9250_ACONFIG_AC
 821              		.loc 1 380 0
 822 0004 054B     		ldr	r3, .L85
 823 0006 1878     		ldrb	r0, [r3]	@ zero_extendqisi2
 824 0008 054C     		ldr	r4, .L85+4
 825 000a 0094     		str	r4, [sp]
 826 000c 1C21     		movs	r1, #28
 827 000e 0222     		movs	r2, #2
 828 0010 0323     		movs	r3, #3
 829 0012 FFF7FEFF 		bl	I2CReadBits
 830              	.LVL40:
 381:mpu_9250.c    ****     return buffer[0];
 382:mpu_9250.c    **** }
 831              		.loc 1 382 0
 832 0016 2078     		ldrb	r0, [r4]	@ zero_extendqisi2
 833 0018 02B0     		add	sp, sp, #8
 834              		.cfi_def_cfa_offset 8
 835              		@ sp needed
 836 001a 10BD     		pop	{r4, pc}
 837              	.L86:
 838              		.align	2
 839              	.L85:
 840 001c 00000000 		.word	devAddr
 841 0020 00000000 		.word	buffer
 842              		.cfi_endproc
 843              	.LFE23:
 844              		.size	MPU9250_getDHPFMode, .-MPU9250_getDHPFMode
 845              		.section	.text.MPU9250_setDHPFMode,"ax",%progbits
 846              		.align	2
 847              		.global	MPU9250_setDHPFMode
 848              		.thumb
 849              		.thumb_func
 850              		.type	MPU9250_setDHPFMode, %function
 851              	MPU9250_setDHPFMode:
 852              	.LFB24:
 383:mpu_9250.c    **** /** Set the high-pass filter configuration.
 384:mpu_9250.c    ****  * @param bandwidth New high-pass filter configuration
 385:mpu_9250.c    ****  * @see setDHPFMode()
 386:mpu_9250.c    ****  * @see MPU9250_DHPF_RESET
 387:mpu_9250.c    ****  * @see MPU9250_RA_ACCEL_CONFIG
 388:mpu_9250.c    ****  */
 389:mpu_9250.c    **** void MPU9250_setDHPFMode(uint8_t bandwidth) {
 853              		.loc 1 389 0
 854              		.cfi_startproc
 855              		@ args = 0, pretend = 0, frame = 0
 856              		@ frame_needed = 0, uses_anonymous_args = 0
 857              	.LVL41:
 858 0000 00B5     		push	{lr}
 859              		.cfi_def_cfa_offset 4
 860              		.cfi_offset 14, -4
 861 0002 83B0     		sub	sp, sp, #12
 862              		.cfi_def_cfa_offset 16
 390:mpu_9250.c    ****     I2CWriteBits(devAddr, MPU9250_RA_ACCEL_CONFIG, MPU9250_ACONFIG_ACCEL_HPF_BIT, MPU9250_ACONFIG_A
 863              		.loc 1 390 0
 864 0004 054B     		ldr	r3, .L89
ARM GAS  C:\Users\hima\AppData\Local\Temp\ccR4vqcc.s 			page 23


 865 0006 1B78     		ldrb	r3, [r3]	@ zero_extendqisi2
 866 0008 0090     		str	r0, [sp]
 867 000a 1846     		mov	r0, r3
 868              	.LVL42:
 869 000c 1C21     		movs	r1, #28
 870 000e 0222     		movs	r2, #2
 871 0010 0323     		movs	r3, #3
 872 0012 FFF7FEFF 		bl	I2CWriteBits
 873              	.LVL43:
 391:mpu_9250.c    **** }
 874              		.loc 1 391 0
 875 0016 03B0     		add	sp, sp, #12
 876              		.cfi_def_cfa_offset 4
 877              		@ sp needed
 878 0018 5DF804FB 		ldr	pc, [sp], #4
 879              	.L90:
 880              		.align	2
 881              	.L89:
 882 001c 00000000 		.word	devAddr
 883              		.cfi_endproc
 884              	.LFE24:
 885              		.size	MPU9250_setDHPFMode, .-MPU9250_setDHPFMode
 886              		.section	.text.MPU9250_getFreefallDetectionThreshold,"ax",%progbits
 887              		.align	2
 888              		.global	MPU9250_getFreefallDetectionThreshold
 889              		.thumb
 890              		.thumb_func
 891              		.type	MPU9250_getFreefallDetectionThreshold, %function
 892              	MPU9250_getFreefallDetectionThreshold:
 893              	.LFB25:
 392:mpu_9250.c    **** 
 393:mpu_9250.c    **** // FF_THR register
 394:mpu_9250.c    **** 
 395:mpu_9250.c    **** /** Get free-fall event acceleration threshold.
 396:mpu_9250.c    ****  * This register configures the detection threshold for Free Fall event
 397:mpu_9250.c    ****  * detection. The unit of FF_THR is 1LSB = 2mg. Free Fall is detected when the
 398:mpu_9250.c    ****  * absolute value of the accelerometer measurements for the three axes are each
 399:mpu_9250.c    ****  * less than the detection threshold. This condition increments the Free Fall
 400:mpu_9250.c    ****  * duration counter (Register 30). The Free Fall interrupt is triggered when the
 401:mpu_9250.c    ****  * Free Fall duration counter reaches the time specified in FF_DUR.
 402:mpu_9250.c    ****  *
 403:mpu_9250.c    ****  * For more details on the Free Fall detection interrupt, see Section 8.2 of the
 404:mpu_9250.c    ****  * MPU-6000/MPU-9250 Product Specification document as well as Registers 56 and
 405:mpu_9250.c    ****  * 58 of this document.
 406:mpu_9250.c    ****  *
 407:mpu_9250.c    ****  * @return Current free-fall acceleration threshold value (LSB = 2mg)
 408:mpu_9250.c    ****  * @see MPU9250_RA_FF_THR
 409:mpu_9250.c    ****  */
 410:mpu_9250.c    **** uint8_t MPU9250_getFreefallDetectionThreshold() {
 894              		.loc 1 410 0
 895              		.cfi_startproc
 896              		@ args = 0, pretend = 0, frame = 0
 897              		@ frame_needed = 0, uses_anonymous_args = 0
 898 0000 10B5     		push	{r4, lr}
 899              		.cfi_def_cfa_offset 8
 900              		.cfi_offset 4, -8
 901              		.cfi_offset 14, -4
ARM GAS  C:\Users\hima\AppData\Local\Temp\ccR4vqcc.s 			page 24


 411:mpu_9250.c    ****     I2CReadByte(devAddr, MPU9250_RA_FF_THR, buffer);
 902              		.loc 1 411 0
 903 0002 044C     		ldr	r4, .L93
 904 0004 044B     		ldr	r3, .L93+4
 905 0006 1878     		ldrb	r0, [r3]	@ zero_extendqisi2
 906 0008 1D21     		movs	r1, #29
 907 000a 2246     		mov	r2, r4
 908 000c FFF7FEFF 		bl	I2CReadByte
 909              	.LVL44:
 412:mpu_9250.c    ****     return buffer[0];
 413:mpu_9250.c    **** }
 910              		.loc 1 413 0
 911 0010 2078     		ldrb	r0, [r4]	@ zero_extendqisi2
 912 0012 10BD     		pop	{r4, pc}
 913              	.L94:
 914              		.align	2
 915              	.L93:
 916 0014 00000000 		.word	buffer
 917 0018 00000000 		.word	devAddr
 918              		.cfi_endproc
 919              	.LFE25:
 920              		.size	MPU9250_getFreefallDetectionThreshold, .-MPU9250_getFreefallDetectionThreshold
 921              		.section	.text.MPU9250_setFreefallDetectionThreshold,"ax",%progbits
 922              		.align	2
 923              		.global	MPU9250_setFreefallDetectionThreshold
 924              		.thumb
 925              		.thumb_func
 926              		.type	MPU9250_setFreefallDetectionThreshold, %function
 927              	MPU9250_setFreefallDetectionThreshold:
 928              	.LFB26:
 414:mpu_9250.c    **** /** Get free-fall event acceleration threshold.
 415:mpu_9250.c    ****  * @param threshold New free-fall acceleration threshold value (LSB = 2mg)
 416:mpu_9250.c    ****  * @see getFreefallDetectionThreshold()
 417:mpu_9250.c    ****  * @see MPU9250_RA_FF_THR
 418:mpu_9250.c    ****  */
 419:mpu_9250.c    **** void MPU9250_setFreefallDetectionThreshold(uint8_t threshold) {
 929              		.loc 1 419 0
 930              		.cfi_startproc
 931              		@ args = 0, pretend = 0, frame = 0
 932              		@ frame_needed = 0, uses_anonymous_args = 0
 933              	.LVL45:
 934 0000 08B5     		push	{r3, lr}
 935              		.cfi_def_cfa_offset 8
 936              		.cfi_offset 3, -8
 937              		.cfi_offset 14, -4
 938 0002 0246     		mov	r2, r0
 420:mpu_9250.c    ****     I2CWriteByte(devAddr, MPU9250_RA_FF_THR, threshold);
 939              		.loc 1 420 0
 940 0004 024B     		ldr	r3, .L97
 941 0006 1878     		ldrb	r0, [r3]	@ zero_extendqisi2
 942              	.LVL46:
 943 0008 1D21     		movs	r1, #29
 944 000a FFF7FEFF 		bl	I2CWriteByte
 945              	.LVL47:
 946 000e 08BD     		pop	{r3, pc}
 947              	.L98:
 948              		.align	2
ARM GAS  C:\Users\hima\AppData\Local\Temp\ccR4vqcc.s 			page 25


 949              	.L97:
 950 0010 00000000 		.word	devAddr
 951              		.cfi_endproc
 952              	.LFE26:
 953              		.size	MPU9250_setFreefallDetectionThreshold, .-MPU9250_setFreefallDetectionThreshold
 954              		.section	.text.MPU9250_getFreefallDetectionDuration,"ax",%progbits
 955              		.align	2
 956              		.global	MPU9250_getFreefallDetectionDuration
 957              		.thumb
 958              		.thumb_func
 959              		.type	MPU9250_getFreefallDetectionDuration, %function
 960              	MPU9250_getFreefallDetectionDuration:
 961              	.LFB27:
 421:mpu_9250.c    **** }
 422:mpu_9250.c    **** 
 423:mpu_9250.c    **** // FF_DUR register
 424:mpu_9250.c    **** 
 425:mpu_9250.c    **** /** Get free-fall event duration threshold.
 426:mpu_9250.c    ****  * This register configures the duration counter threshold for Free Fall event
 427:mpu_9250.c    ****  * detection. The duration counter ticks at 1kHz, therefore FF_DUR has a unit
 428:mpu_9250.c    ****  * of 1 LSB = 1 ms.
 429:mpu_9250.c    ****  *
 430:mpu_9250.c    ****  * The Free Fall duration counter increments while the absolute value of the
 431:mpu_9250.c    ****  * accelerometer measurements are each less than the detection threshold
 432:mpu_9250.c    ****  * (Register 29). The Free Fall interrupt is triggered when the Free Fall
 433:mpu_9250.c    ****  * duration counter reaches the time specified in this register.
 434:mpu_9250.c    ****  *
 435:mpu_9250.c    ****  * For more details on the Free Fall detection interrupt, see Section 8.2 of
 436:mpu_9250.c    ****  * the MPU-6000/MPU-9250 Product Specification document as well as Registers 56
 437:mpu_9250.c    ****  * and 58 of this document.
 438:mpu_9250.c    ****  *
 439:mpu_9250.c    ****  * @return Current free-fall duration threshold value (LSB = 1ms)
 440:mpu_9250.c    ****  * @see MPU9250_RA_FF_DUR
 441:mpu_9250.c    ****  */
 442:mpu_9250.c    **** uint8_t MPU9250_getFreefallDetectionDuration() {
 962              		.loc 1 442 0
 963              		.cfi_startproc
 964              		@ args = 0, pretend = 0, frame = 0
 965              		@ frame_needed = 0, uses_anonymous_args = 0
 966 0000 10B5     		push	{r4, lr}
 967              		.cfi_def_cfa_offset 8
 968              		.cfi_offset 4, -8
 969              		.cfi_offset 14, -4
 443:mpu_9250.c    ****     I2CReadByte(devAddr, MPU9250_RA_FF_DUR, buffer);
 970              		.loc 1 443 0
 971 0002 044C     		ldr	r4, .L101
 972 0004 044B     		ldr	r3, .L101+4
 973 0006 1878     		ldrb	r0, [r3]	@ zero_extendqisi2
 974 0008 1E21     		movs	r1, #30
 975 000a 2246     		mov	r2, r4
 976 000c FFF7FEFF 		bl	I2CReadByte
 977              	.LVL48:
 444:mpu_9250.c    ****     return buffer[0];
 445:mpu_9250.c    **** }
 978              		.loc 1 445 0
 979 0010 2078     		ldrb	r0, [r4]	@ zero_extendqisi2
 980 0012 10BD     		pop	{r4, pc}
ARM GAS  C:\Users\hima\AppData\Local\Temp\ccR4vqcc.s 			page 26


 981              	.L102:
 982              		.align	2
 983              	.L101:
 984 0014 00000000 		.word	buffer
 985 0018 00000000 		.word	devAddr
 986              		.cfi_endproc
 987              	.LFE27:
 988              		.size	MPU9250_getFreefallDetectionDuration, .-MPU9250_getFreefallDetectionDuration
 989              		.section	.text.MPU9250_setFreefallDetectionDuration,"ax",%progbits
 990              		.align	2
 991              		.global	MPU9250_setFreefallDetectionDuration
 992              		.thumb
 993              		.thumb_func
 994              		.type	MPU9250_setFreefallDetectionDuration, %function
 995              	MPU9250_setFreefallDetectionDuration:
 996              	.LFB28:
 446:mpu_9250.c    **** /** Get free-fall event duration threshold.
 447:mpu_9250.c    ****  * @param duration New free-fall duration threshold value (LSB = 1ms)
 448:mpu_9250.c    ****  * @see getFreefallDetectionDuration()
 449:mpu_9250.c    ****  * @see MPU9250_RA_FF_DUR
 450:mpu_9250.c    ****  */
 451:mpu_9250.c    **** void MPU9250_setFreefallDetectionDuration(uint8_t duration) {
 997              		.loc 1 451 0
 998              		.cfi_startproc
 999              		@ args = 0, pretend = 0, frame = 0
 1000              		@ frame_needed = 0, uses_anonymous_args = 0
 1001              	.LVL49:
 1002 0000 08B5     		push	{r3, lr}
 1003              		.cfi_def_cfa_offset 8
 1004              		.cfi_offset 3, -8
 1005              		.cfi_offset 14, -4
 1006 0002 0246     		mov	r2, r0
 452:mpu_9250.c    ****     I2CWriteByte(devAddr, MPU9250_RA_FF_DUR, duration);
 1007              		.loc 1 452 0
 1008 0004 024B     		ldr	r3, .L105
 1009 0006 1878     		ldrb	r0, [r3]	@ zero_extendqisi2
 1010              	.LVL50:
 1011 0008 1E21     		movs	r1, #30
 1012 000a FFF7FEFF 		bl	I2CWriteByte
 1013              	.LVL51:
 1014 000e 08BD     		pop	{r3, pc}
 1015              	.L106:
 1016              		.align	2
 1017              	.L105:
 1018 0010 00000000 		.word	devAddr
 1019              		.cfi_endproc
 1020              	.LFE28:
 1021              		.size	MPU9250_setFreefallDetectionDuration, .-MPU9250_setFreefallDetectionDuration
 1022              		.section	.text.MPU9250_getMotionDetectionThreshold,"ax",%progbits
 1023              		.align	2
 1024              		.global	MPU9250_getMotionDetectionThreshold
 1025              		.thumb
 1026              		.thumb_func
 1027              		.type	MPU9250_getMotionDetectionThreshold, %function
 1028              	MPU9250_getMotionDetectionThreshold:
 1029              	.LFB29:
 453:mpu_9250.c    **** }
ARM GAS  C:\Users\hima\AppData\Local\Temp\ccR4vqcc.s 			page 27


 454:mpu_9250.c    **** 
 455:mpu_9250.c    **** // MOT_THR register
 456:mpu_9250.c    **** 
 457:mpu_9250.c    **** /** Get motion detection event acceleration threshold.
 458:mpu_9250.c    ****  * This register configures the detection threshold for Motion interrupt
 459:mpu_9250.c    ****  * generation. The unit of MOT_THR is 1LSB = 2mg. Motion is detected when the
 460:mpu_9250.c    ****  * absolute value of any of the accelerometer measurements exceeds this Motion
 461:mpu_9250.c    ****  * detection threshold. This condition increments the Motion detection duration
 462:mpu_9250.c    ****  * counter (Register 32). The Motion detection interrupt is triggered when the
 463:mpu_9250.c    ****  * Motion Detection counter reaches the time count specified in MOT_DUR
 464:mpu_9250.c    ****  * (Register 32).
 465:mpu_9250.c    ****  *
 466:mpu_9250.c    ****  * The Motion interrupt will indicate the axis and polarity of detected motion
 467:mpu_9250.c    ****  * in MOT_DETECT_STATUS (Register 97).
 468:mpu_9250.c    ****  *
 469:mpu_9250.c    ****  * For more details on the Motion detection interrupt, see Section 8.3 of the
 470:mpu_9250.c    ****  * MPU-6000/MPU-9250 Product Specification document as well as Registers 56 and
 471:mpu_9250.c    ****  * 58 of this document.
 472:mpu_9250.c    ****  *
 473:mpu_9250.c    ****  * @return Current motion detection acceleration threshold value (LSB = 2mg)
 474:mpu_9250.c    ****  * @see MPU9250_RA_MOT_THR
 475:mpu_9250.c    ****  */
 476:mpu_9250.c    **** uint8_t MPU9250_getMotionDetectionThreshold() {
 1030              		.loc 1 476 0
 1031              		.cfi_startproc
 1032              		@ args = 0, pretend = 0, frame = 0
 1033              		@ frame_needed = 0, uses_anonymous_args = 0
 1034 0000 10B5     		push	{r4, lr}
 1035              		.cfi_def_cfa_offset 8
 1036              		.cfi_offset 4, -8
 1037              		.cfi_offset 14, -4
 477:mpu_9250.c    ****     I2CReadByte(devAddr, MPU9250_RA_MOT_THR, buffer);
 1038              		.loc 1 477 0
 1039 0002 044C     		ldr	r4, .L109
 1040 0004 044B     		ldr	r3, .L109+4
 1041 0006 1878     		ldrb	r0, [r3]	@ zero_extendqisi2
 1042 0008 1F21     		movs	r1, #31
 1043 000a 2246     		mov	r2, r4
 1044 000c FFF7FEFF 		bl	I2CReadByte
 1045              	.LVL52:
 478:mpu_9250.c    ****     return buffer[0];
 479:mpu_9250.c    **** }
 1046              		.loc 1 479 0
 1047 0010 2078     		ldrb	r0, [r4]	@ zero_extendqisi2
 1048 0012 10BD     		pop	{r4, pc}
 1049              	.L110:
 1050              		.align	2
 1051              	.L109:
 1052 0014 00000000 		.word	buffer
 1053 0018 00000000 		.word	devAddr
 1054              		.cfi_endproc
 1055              	.LFE29:
 1056              		.size	MPU9250_getMotionDetectionThreshold, .-MPU9250_getMotionDetectionThreshold
 1057              		.section	.text.MPU9250_setMotionDetectionThreshold,"ax",%progbits
 1058              		.align	2
 1059              		.global	MPU9250_setMotionDetectionThreshold
 1060              		.thumb
ARM GAS  C:\Users\hima\AppData\Local\Temp\ccR4vqcc.s 			page 28


 1061              		.thumb_func
 1062              		.type	MPU9250_setMotionDetectionThreshold, %function
 1063              	MPU9250_setMotionDetectionThreshold:
 1064              	.LFB30:
 480:mpu_9250.c    **** /** Set free-fall event acceleration threshold.
 481:mpu_9250.c    ****  * @param threshold New motion detection acceleration threshold value (LSB = 2mg)
 482:mpu_9250.c    ****  * @see getMotionDetectionThreshold()
 483:mpu_9250.c    ****  * @see MPU9250_RA_MOT_THR
 484:mpu_9250.c    ****  */
 485:mpu_9250.c    **** void MPU9250_setMotionDetectionThreshold(uint8_t threshold) {
 1065              		.loc 1 485 0
 1066              		.cfi_startproc
 1067              		@ args = 0, pretend = 0, frame = 0
 1068              		@ frame_needed = 0, uses_anonymous_args = 0
 1069              	.LVL53:
 1070 0000 08B5     		push	{r3, lr}
 1071              		.cfi_def_cfa_offset 8
 1072              		.cfi_offset 3, -8
 1073              		.cfi_offset 14, -4
 1074 0002 0246     		mov	r2, r0
 486:mpu_9250.c    ****     I2CWriteByte(devAddr, MPU9250_RA_MOT_THR, threshold);
 1075              		.loc 1 486 0
 1076 0004 024B     		ldr	r3, .L113
 1077 0006 1878     		ldrb	r0, [r3]	@ zero_extendqisi2
 1078              	.LVL54:
 1079 0008 1F21     		movs	r1, #31
 1080 000a FFF7FEFF 		bl	I2CWriteByte
 1081              	.LVL55:
 1082 000e 08BD     		pop	{r3, pc}
 1083              	.L114:
 1084              		.align	2
 1085              	.L113:
 1086 0010 00000000 		.word	devAddr
 1087              		.cfi_endproc
 1088              	.LFE30:
 1089              		.size	MPU9250_setMotionDetectionThreshold, .-MPU9250_setMotionDetectionThreshold
 1090              		.section	.text.MPU9250_getMotionDetectionDuration,"ax",%progbits
 1091              		.align	2
 1092              		.global	MPU9250_getMotionDetectionDuration
 1093              		.thumb
 1094              		.thumb_func
 1095              		.type	MPU9250_getMotionDetectionDuration, %function
 1096              	MPU9250_getMotionDetectionDuration:
 1097              	.LFB31:
 487:mpu_9250.c    **** }
 488:mpu_9250.c    **** 
 489:mpu_9250.c    **** // MOT_DUR register
 490:mpu_9250.c    **** 
 491:mpu_9250.c    **** /** Get motion detection event duration threshold.
 492:mpu_9250.c    ****  * This register configures the duration counter threshold for Motion interrupt
 493:mpu_9250.c    ****  * generation. The duration counter ticks at 1 kHz, therefore MOT_DUR has a unit
 494:mpu_9250.c    ****  * of 1LSB = 1ms. The Motion detection duration counter increments when the
 495:mpu_9250.c    ****  * absolute value of any of the accelerometer measurements exceeds the Motion
 496:mpu_9250.c    ****  * detection threshold (Register 31). The Motion detection interrupt is
 497:mpu_9250.c    ****  * triggered when the Motion detection counter reaches the time count specified
 498:mpu_9250.c    ****  * in this register.
 499:mpu_9250.c    ****  *
ARM GAS  C:\Users\hima\AppData\Local\Temp\ccR4vqcc.s 			page 29


 500:mpu_9250.c    ****  * For more details on the Motion detection interrupt, see Section 8.3 of the
 501:mpu_9250.c    ****  * MPU-6000/MPU-9250 Product Specification document.
 502:mpu_9250.c    ****  *
 503:mpu_9250.c    ****  * @return Current motion detection duration threshold value (LSB = 1ms)
 504:mpu_9250.c    ****  * @see MPU9250_RA_MOT_DUR
 505:mpu_9250.c    ****  */
 506:mpu_9250.c    **** uint8_t MPU9250_getMotionDetectionDuration() {
 1098              		.loc 1 506 0
 1099              		.cfi_startproc
 1100              		@ args = 0, pretend = 0, frame = 0
 1101              		@ frame_needed = 0, uses_anonymous_args = 0
 1102 0000 10B5     		push	{r4, lr}
 1103              		.cfi_def_cfa_offset 8
 1104              		.cfi_offset 4, -8
 1105              		.cfi_offset 14, -4
 507:mpu_9250.c    ****     I2CReadByte(devAddr, MPU9250_RA_MOT_DUR, buffer);
 1106              		.loc 1 507 0
 1107 0002 044C     		ldr	r4, .L117
 1108 0004 044B     		ldr	r3, .L117+4
 1109 0006 1878     		ldrb	r0, [r3]	@ zero_extendqisi2
 1110 0008 2021     		movs	r1, #32
 1111 000a 2246     		mov	r2, r4
 1112 000c FFF7FEFF 		bl	I2CReadByte
 1113              	.LVL56:
 508:mpu_9250.c    ****     return buffer[0];
 509:mpu_9250.c    **** }
 1114              		.loc 1 509 0
 1115 0010 2078     		ldrb	r0, [r4]	@ zero_extendqisi2
 1116 0012 10BD     		pop	{r4, pc}
 1117              	.L118:
 1118              		.align	2
 1119              	.L117:
 1120 0014 00000000 		.word	buffer
 1121 0018 00000000 		.word	devAddr
 1122              		.cfi_endproc
 1123              	.LFE31:
 1124              		.size	MPU9250_getMotionDetectionDuration, .-MPU9250_getMotionDetectionDuration
 1125              		.section	.text.MPU9250_setMotionDetectionDuration,"ax",%progbits
 1126              		.align	2
 1127              		.global	MPU9250_setMotionDetectionDuration
 1128              		.thumb
 1129              		.thumb_func
 1130              		.type	MPU9250_setMotionDetectionDuration, %function
 1131              	MPU9250_setMotionDetectionDuration:
 1132              	.LFB32:
 510:mpu_9250.c    **** /** Set motion detection event duration threshold.
 511:mpu_9250.c    ****  * @param duration New motion detection duration threshold value (LSB = 1ms)
 512:mpu_9250.c    ****  * @see getMotionDetectionDuration()
 513:mpu_9250.c    ****  * @see MPU9250_RA_MOT_DUR
 514:mpu_9250.c    ****  */
 515:mpu_9250.c    **** void MPU9250_setMotionDetectionDuration(uint8_t duration) {
 1133              		.loc 1 515 0
 1134              		.cfi_startproc
 1135              		@ args = 0, pretend = 0, frame = 0
 1136              		@ frame_needed = 0, uses_anonymous_args = 0
 1137              	.LVL57:
 1138 0000 08B5     		push	{r3, lr}
ARM GAS  C:\Users\hima\AppData\Local\Temp\ccR4vqcc.s 			page 30


 1139              		.cfi_def_cfa_offset 8
 1140              		.cfi_offset 3, -8
 1141              		.cfi_offset 14, -4
 1142 0002 0246     		mov	r2, r0
 516:mpu_9250.c    ****     I2CWriteByte(devAddr, MPU9250_RA_MOT_DUR, duration);
 1143              		.loc 1 516 0
 1144 0004 024B     		ldr	r3, .L121
 1145 0006 1878     		ldrb	r0, [r3]	@ zero_extendqisi2
 1146              	.LVL58:
 1147 0008 2021     		movs	r1, #32
 1148 000a FFF7FEFF 		bl	I2CWriteByte
 1149              	.LVL59:
 1150 000e 08BD     		pop	{r3, pc}
 1151              	.L122:
 1152              		.align	2
 1153              	.L121:
 1154 0010 00000000 		.word	devAddr
 1155              		.cfi_endproc
 1156              	.LFE32:
 1157              		.size	MPU9250_setMotionDetectionDuration, .-MPU9250_setMotionDetectionDuration
 1158              		.section	.text.MPU9250_getZeroMotionDetectionThreshold,"ax",%progbits
 1159              		.align	2
 1160              		.global	MPU9250_getZeroMotionDetectionThreshold
 1161              		.thumb
 1162              		.thumb_func
 1163              		.type	MPU9250_getZeroMotionDetectionThreshold, %function
 1164              	MPU9250_getZeroMotionDetectionThreshold:
 1165              	.LFB33:
 517:mpu_9250.c    **** }
 518:mpu_9250.c    **** 
 519:mpu_9250.c    **** // ZRMOT_THR register
 520:mpu_9250.c    **** 
 521:mpu_9250.c    **** /** Get zero motion detection event acceleration threshold.
 522:mpu_9250.c    ****  * This register configures the detection threshold for Zero Motion interrupt
 523:mpu_9250.c    ****  * generation. The unit of ZRMOT_THR is 1LSB = 2mg. Zero Motion is detected when
 524:mpu_9250.c    ****  * the absolute value of the accelerometer measurements for the 3 axes are each
 525:mpu_9250.c    ****  * less than the detection threshold. This condition increments the Zero Motion
 526:mpu_9250.c    ****  * duration counter (Register 34). The Zero Motion interrupt is triggered when
 527:mpu_9250.c    ****  * the Zero Motion duration counter reaches the time count specified in
 528:mpu_9250.c    ****  * ZRMOT_DUR (Register 34).
 529:mpu_9250.c    ****  *
 530:mpu_9250.c    ****  * Unlike Free Fall or Motion detection, Zero Motion detection triggers an
 531:mpu_9250.c    ****  * interrupt both when Zero Motion is first detected and when Zero Motion is no
 532:mpu_9250.c    ****  * longer detected.
 533:mpu_9250.c    ****  *
 534:mpu_9250.c    ****  * When a zero motion event is detected, a Zero Motion Status will be indicated
 535:mpu_9250.c    ****  * in the MOT_DETECT_STATUS register (Register 97). When a motion-to-zero-motion
 536:mpu_9250.c    ****  * condition is detected, the status bit is set to 1. When a zero-motion-to-
 537:mpu_9250.c    ****  * motion condition is detected, the status bit is set to 0.
 538:mpu_9250.c    ****  *
 539:mpu_9250.c    ****  * For more details on the Zero Motion detection interrupt, see Section 8.4 of
 540:mpu_9250.c    ****  * the MPU-6000/MPU-9250 Product Specification document as well as Registers 56
 541:mpu_9250.c    ****  * and 58 of this document.
 542:mpu_9250.c    ****  *
 543:mpu_9250.c    ****  * @return Current zero motion detection acceleration threshold value (LSB = 2mg)
 544:mpu_9250.c    ****  * @see MPU9250_RA_ZRMOT_THR
 545:mpu_9250.c    ****  */
ARM GAS  C:\Users\hima\AppData\Local\Temp\ccR4vqcc.s 			page 31


 546:mpu_9250.c    **** uint8_t MPU9250_getZeroMotionDetectionThreshold() {
 1166              		.loc 1 546 0
 1167              		.cfi_startproc
 1168              		@ args = 0, pretend = 0, frame = 0
 1169              		@ frame_needed = 0, uses_anonymous_args = 0
 1170 0000 10B5     		push	{r4, lr}
 1171              		.cfi_def_cfa_offset 8
 1172              		.cfi_offset 4, -8
 1173              		.cfi_offset 14, -4
 547:mpu_9250.c    ****     I2CReadByte(devAddr, MPU9250_RA_ZRMOT_THR, buffer);
 1174              		.loc 1 547 0
 1175 0002 044C     		ldr	r4, .L125
 1176 0004 044B     		ldr	r3, .L125+4
 1177 0006 1878     		ldrb	r0, [r3]	@ zero_extendqisi2
 1178 0008 2121     		movs	r1, #33
 1179 000a 2246     		mov	r2, r4
 1180 000c FFF7FEFF 		bl	I2CReadByte
 1181              	.LVL60:
 548:mpu_9250.c    ****     return buffer[0];
 549:mpu_9250.c    **** }
 1182              		.loc 1 549 0
 1183 0010 2078     		ldrb	r0, [r4]	@ zero_extendqisi2
 1184 0012 10BD     		pop	{r4, pc}
 1185              	.L126:
 1186              		.align	2
 1187              	.L125:
 1188 0014 00000000 		.word	buffer
 1189 0018 00000000 		.word	devAddr
 1190              		.cfi_endproc
 1191              	.LFE33:
 1192              		.size	MPU9250_getZeroMotionDetectionThreshold, .-MPU9250_getZeroMotionDetectionThreshold
 1193              		.section	.text.MPU9250_setZeroMotionDetectionThreshold,"ax",%progbits
 1194              		.align	2
 1195              		.global	MPU9250_setZeroMotionDetectionThreshold
 1196              		.thumb
 1197              		.thumb_func
 1198              		.type	MPU9250_setZeroMotionDetectionThreshold, %function
 1199              	MPU9250_setZeroMotionDetectionThreshold:
 1200              	.LFB34:
 550:mpu_9250.c    **** /** Set zero motion detection event acceleration threshold.
 551:mpu_9250.c    ****  * @param threshold New zero motion detection acceleration threshold value (LSB = 2mg)
 552:mpu_9250.c    ****  * @see getZeroMotionDetectionThreshold()
 553:mpu_9250.c    ****  * @see MPU9250_RA_ZRMOT_THR
 554:mpu_9250.c    ****  */
 555:mpu_9250.c    **** void MPU9250_setZeroMotionDetectionThreshold(uint8_t threshold) {
 1201              		.loc 1 555 0
 1202              		.cfi_startproc
 1203              		@ args = 0, pretend = 0, frame = 0
 1204              		@ frame_needed = 0, uses_anonymous_args = 0
 1205              	.LVL61:
 1206 0000 08B5     		push	{r3, lr}
 1207              		.cfi_def_cfa_offset 8
 1208              		.cfi_offset 3, -8
 1209              		.cfi_offset 14, -4
 1210 0002 0246     		mov	r2, r0
 556:mpu_9250.c    ****     I2CWriteByte(devAddr, MPU9250_RA_ZRMOT_THR, threshold);
 1211              		.loc 1 556 0
ARM GAS  C:\Users\hima\AppData\Local\Temp\ccR4vqcc.s 			page 32


 1212 0004 024B     		ldr	r3, .L129
 1213 0006 1878     		ldrb	r0, [r3]	@ zero_extendqisi2
 1214              	.LVL62:
 1215 0008 2121     		movs	r1, #33
 1216 000a FFF7FEFF 		bl	I2CWriteByte
 1217              	.LVL63:
 1218 000e 08BD     		pop	{r3, pc}
 1219              	.L130:
 1220              		.align	2
 1221              	.L129:
 1222 0010 00000000 		.word	devAddr
 1223              		.cfi_endproc
 1224              	.LFE34:
 1225              		.size	MPU9250_setZeroMotionDetectionThreshold, .-MPU9250_setZeroMotionDetectionThreshold
 1226              		.section	.text.MPU9250_getZeroMotionDetectionDuration,"ax",%progbits
 1227              		.align	2
 1228              		.global	MPU9250_getZeroMotionDetectionDuration
 1229              		.thumb
 1230              		.thumb_func
 1231              		.type	MPU9250_getZeroMotionDetectionDuration, %function
 1232              	MPU9250_getZeroMotionDetectionDuration:
 1233              	.LFB35:
 557:mpu_9250.c    **** }
 558:mpu_9250.c    **** 
 559:mpu_9250.c    **** // ZRMOT_DUR register
 560:mpu_9250.c    **** 
 561:mpu_9250.c    **** /** Get zero motion detection event duration threshold.
 562:mpu_9250.c    ****  * This register configures the duration counter threshold for Zero Motion
 563:mpu_9250.c    ****  * interrupt generation. The duration counter ticks at 16 Hz, therefore
 564:mpu_9250.c    ****  * ZRMOT_DUR has a unit of 1 LSB = 64 ms. The Zero Motion duration counter
 565:mpu_9250.c    ****  * increments while the absolute value of the accelerometer measurements are
 566:mpu_9250.c    ****  * each less than the detection threshold (Register 33). The Zero Motion
 567:mpu_9250.c    ****  * interrupt is triggered when the Zero Motion duration counter reaches the time
 568:mpu_9250.c    ****  * count specified in this register.
 569:mpu_9250.c    ****  *
 570:mpu_9250.c    ****  * For more details on the Zero Motion detection interrupt, see Section 8.4 of
 571:mpu_9250.c    ****  * the MPU-6000/MPU-9250 Product Specification document, as well as Registers 56
 572:mpu_9250.c    ****  * and 58 of this document.
 573:mpu_9250.c    ****  *
 574:mpu_9250.c    ****  * @return Current zero motion detection duration threshold value (LSB = 64ms)
 575:mpu_9250.c    ****  * @see MPU9250_RA_ZRMOT_DUR
 576:mpu_9250.c    ****  */
 577:mpu_9250.c    **** uint8_t MPU9250_getZeroMotionDetectionDuration() {
 1234              		.loc 1 577 0
 1235              		.cfi_startproc
 1236              		@ args = 0, pretend = 0, frame = 0
 1237              		@ frame_needed = 0, uses_anonymous_args = 0
 1238 0000 10B5     		push	{r4, lr}
 1239              		.cfi_def_cfa_offset 8
 1240              		.cfi_offset 4, -8
 1241              		.cfi_offset 14, -4
 578:mpu_9250.c    ****     I2CReadByte(devAddr, MPU9250_RA_ZRMOT_DUR, buffer);
 1242              		.loc 1 578 0
 1243 0002 044C     		ldr	r4, .L133
 1244 0004 044B     		ldr	r3, .L133+4
 1245 0006 1878     		ldrb	r0, [r3]	@ zero_extendqisi2
 1246 0008 2221     		movs	r1, #34
ARM GAS  C:\Users\hima\AppData\Local\Temp\ccR4vqcc.s 			page 33


 1247 000a 2246     		mov	r2, r4
 1248 000c FFF7FEFF 		bl	I2CReadByte
 1249              	.LVL64:
 579:mpu_9250.c    ****     return buffer[0];
 580:mpu_9250.c    **** }
 1250              		.loc 1 580 0
 1251 0010 2078     		ldrb	r0, [r4]	@ zero_extendqisi2
 1252 0012 10BD     		pop	{r4, pc}
 1253              	.L134:
 1254              		.align	2
 1255              	.L133:
 1256 0014 00000000 		.word	buffer
 1257 0018 00000000 		.word	devAddr
 1258              		.cfi_endproc
 1259              	.LFE35:
 1260              		.size	MPU9250_getZeroMotionDetectionDuration, .-MPU9250_getZeroMotionDetectionDuration
 1261              		.section	.text.MPU9250_setZeroMotionDetectionDuration,"ax",%progbits
 1262              		.align	2
 1263              		.global	MPU9250_setZeroMotionDetectionDuration
 1264              		.thumb
 1265              		.thumb_func
 1266              		.type	MPU9250_setZeroMotionDetectionDuration, %function
 1267              	MPU9250_setZeroMotionDetectionDuration:
 1268              	.LFB36:
 581:mpu_9250.c    **** /** Set zero motion detection event duration threshold.
 582:mpu_9250.c    ****  * @param duration New zero motion detection duration threshold value (LSB = 1ms)
 583:mpu_9250.c    ****  * @see getZeroMotionDetectionDuration()
 584:mpu_9250.c    ****  * @see MPU9250_RA_ZRMOT_DUR
 585:mpu_9250.c    ****  */
 586:mpu_9250.c    **** void MPU9250_setZeroMotionDetectionDuration(uint8_t duration) {
 1269              		.loc 1 586 0
 1270              		.cfi_startproc
 1271              		@ args = 0, pretend = 0, frame = 0
 1272              		@ frame_needed = 0, uses_anonymous_args = 0
 1273              	.LVL65:
 1274 0000 08B5     		push	{r3, lr}
 1275              		.cfi_def_cfa_offset 8
 1276              		.cfi_offset 3, -8
 1277              		.cfi_offset 14, -4
 1278 0002 0246     		mov	r2, r0
 587:mpu_9250.c    ****     I2CWriteByte(devAddr, MPU9250_RA_ZRMOT_DUR, duration);
 1279              		.loc 1 587 0
 1280 0004 024B     		ldr	r3, .L137
 1281 0006 1878     		ldrb	r0, [r3]	@ zero_extendqisi2
 1282              	.LVL66:
 1283 0008 2221     		movs	r1, #34
 1284 000a FFF7FEFF 		bl	I2CWriteByte
 1285              	.LVL67:
 1286 000e 08BD     		pop	{r3, pc}
 1287              	.L138:
 1288              		.align	2
 1289              	.L137:
 1290 0010 00000000 		.word	devAddr
 1291              		.cfi_endproc
 1292              	.LFE36:
 1293              		.size	MPU9250_setZeroMotionDetectionDuration, .-MPU9250_setZeroMotionDetectionDuration
 1294              		.section	.text.MPU9250_getTempFIFOEnabled,"ax",%progbits
ARM GAS  C:\Users\hima\AppData\Local\Temp\ccR4vqcc.s 			page 34


 1295              		.align	2
 1296              		.global	MPU9250_getTempFIFOEnabled
 1297              		.thumb
 1298              		.thumb_func
 1299              		.type	MPU9250_getTempFIFOEnabled, %function
 1300              	MPU9250_getTempFIFOEnabled:
 1301              	.LFB37:
 588:mpu_9250.c    **** }
 589:mpu_9250.c    **** 
 590:mpu_9250.c    **** // FIFO_EN register
 591:mpu_9250.c    **** 
 592:mpu_9250.c    **** /** Get temperature FIFO enabled value.
 593:mpu_9250.c    ****  * When set to 1, this bit enables TEMP_OUT_H and TEMP_OUT_L (Registers 65 and
 594:mpu_9250.c    ****  * 66) to be written into the FIFO buffer.
 595:mpu_9250.c    ****  * @return Current temperature FIFO enabled value
 596:mpu_9250.c    ****  * @see MPU9250_RA_FIFO_EN
 597:mpu_9250.c    ****  */
 598:mpu_9250.c    **** bool MPU9250_getTempFIFOEnabled() {
 1302              		.loc 1 598 0
 1303              		.cfi_startproc
 1304              		@ args = 0, pretend = 0, frame = 0
 1305              		@ frame_needed = 0, uses_anonymous_args = 0
 1306 0000 10B5     		push	{r4, lr}
 1307              		.cfi_def_cfa_offset 8
 1308              		.cfi_offset 4, -8
 1309              		.cfi_offset 14, -4
 599:mpu_9250.c    ****     I2CReadBit(devAddr, MPU9250_RA_FIFO_EN, MPU9250_TEMP_FIFO_EN_BIT, buffer);
 1310              		.loc 1 599 0
 1311 0002 064C     		ldr	r4, .L141
 1312 0004 064B     		ldr	r3, .L141+4
 1313 0006 1878     		ldrb	r0, [r3]	@ zero_extendqisi2
 1314 0008 2321     		movs	r1, #35
 1315 000a 0722     		movs	r2, #7
 1316 000c 2346     		mov	r3, r4
 1317 000e FFF7FEFF 		bl	I2CReadBit
 1318              	.LVL68:
 600:mpu_9250.c    ****     return buffer[0];
 1319              		.loc 1 600 0
 1320 0012 2078     		ldrb	r0, [r4]	@ zero_extendqisi2
 601:mpu_9250.c    **** }
 1321              		.loc 1 601 0
 1322 0014 0030     		adds	r0, r0, #0
 1323 0016 18BF     		it	ne
 1324 0018 0120     		movne	r0, #1
 1325 001a 10BD     		pop	{r4, pc}
 1326              	.L142:
 1327              		.align	2
 1328              	.L141:
 1329 001c 00000000 		.word	buffer
 1330 0020 00000000 		.word	devAddr
 1331              		.cfi_endproc
 1332              	.LFE37:
 1333              		.size	MPU9250_getTempFIFOEnabled, .-MPU9250_getTempFIFOEnabled
 1334              		.section	.text.MPU9250_setTempFIFOEnabled,"ax",%progbits
 1335              		.align	2
 1336              		.global	MPU9250_setTempFIFOEnabled
 1337              		.thumb
ARM GAS  C:\Users\hima\AppData\Local\Temp\ccR4vqcc.s 			page 35


 1338              		.thumb_func
 1339              		.type	MPU9250_setTempFIFOEnabled, %function
 1340              	MPU9250_setTempFIFOEnabled:
 1341              	.LFB38:
 602:mpu_9250.c    **** /** Set temperature FIFO enabled value.
 603:mpu_9250.c    ****  * @param enabled New temperature FIFO enabled value
 604:mpu_9250.c    ****  * @see getTempFIFOEnabled()
 605:mpu_9250.c    ****  * @see MPU9250_RA_FIFO_EN
 606:mpu_9250.c    ****  */
 607:mpu_9250.c    **** void MPU9250_setTempFIFOEnabled(bool enabled) {
 1342              		.loc 1 607 0
 1343              		.cfi_startproc
 1344              		@ args = 0, pretend = 0, frame = 0
 1345              		@ frame_needed = 0, uses_anonymous_args = 0
 1346              	.LVL69:
 1347 0000 08B5     		push	{r3, lr}
 1348              		.cfi_def_cfa_offset 8
 1349              		.cfi_offset 3, -8
 1350              		.cfi_offset 14, -4
 1351 0002 0346     		mov	r3, r0
 608:mpu_9250.c    ****     I2CWriteBit(devAddr, MPU9250_RA_FIFO_EN, MPU9250_TEMP_FIFO_EN_BIT, enabled);
 1352              		.loc 1 608 0
 1353 0004 034A     		ldr	r2, .L145
 1354 0006 1078     		ldrb	r0, [r2]	@ zero_extendqisi2
 1355              	.LVL70:
 1356 0008 2321     		movs	r1, #35
 1357 000a 0722     		movs	r2, #7
 1358 000c FFF7FEFF 		bl	I2CWriteBit
 1359              	.LVL71:
 1360 0010 08BD     		pop	{r3, pc}
 1361              	.L146:
 1362 0012 00BF     		.align	2
 1363              	.L145:
 1364 0014 00000000 		.word	devAddr
 1365              		.cfi_endproc
 1366              	.LFE38:
 1367              		.size	MPU9250_setTempFIFOEnabled, .-MPU9250_setTempFIFOEnabled
 1368              		.section	.text.MPU9250_getXGyroFIFOEnabled,"ax",%progbits
 1369              		.align	2
 1370              		.global	MPU9250_getXGyroFIFOEnabled
 1371              		.thumb
 1372              		.thumb_func
 1373              		.type	MPU9250_getXGyroFIFOEnabled, %function
 1374              	MPU9250_getXGyroFIFOEnabled:
 1375              	.LFB39:
 609:mpu_9250.c    **** }
 610:mpu_9250.c    **** /** Get gyroscope X-axis FIFO enabled value.
 611:mpu_9250.c    ****  * When set to 1, this bit enables GYRO_XOUT_H and GYRO_XOUT_L (Registers 67 and
 612:mpu_9250.c    ****  * 68) to be written into the FIFO buffer.
 613:mpu_9250.c    ****  * @return Current gyroscope X-axis FIFO enabled value
 614:mpu_9250.c    ****  * @see MPU9250_RA_FIFO_EN
 615:mpu_9250.c    ****  */
 616:mpu_9250.c    **** bool MPU9250_getXGyroFIFOEnabled() {
 1376              		.loc 1 616 0
 1377              		.cfi_startproc
 1378              		@ args = 0, pretend = 0, frame = 0
 1379              		@ frame_needed = 0, uses_anonymous_args = 0
ARM GAS  C:\Users\hima\AppData\Local\Temp\ccR4vqcc.s 			page 36


 1380 0000 10B5     		push	{r4, lr}
 1381              		.cfi_def_cfa_offset 8
 1382              		.cfi_offset 4, -8
 1383              		.cfi_offset 14, -4
 617:mpu_9250.c    ****     I2CReadBit(devAddr, MPU9250_RA_FIFO_EN, MPU9250_XG_FIFO_EN_BIT, buffer);
 1384              		.loc 1 617 0
 1385 0002 064C     		ldr	r4, .L149
 1386 0004 064B     		ldr	r3, .L149+4
 1387 0006 1878     		ldrb	r0, [r3]	@ zero_extendqisi2
 1388 0008 2321     		movs	r1, #35
 1389 000a 0622     		movs	r2, #6
 1390 000c 2346     		mov	r3, r4
 1391 000e FFF7FEFF 		bl	I2CReadBit
 1392              	.LVL72:
 618:mpu_9250.c    ****     return buffer[0];
 1393              		.loc 1 618 0
 1394 0012 2078     		ldrb	r0, [r4]	@ zero_extendqisi2
 619:mpu_9250.c    **** }
 1395              		.loc 1 619 0
 1396 0014 0030     		adds	r0, r0, #0
 1397 0016 18BF     		it	ne
 1398 0018 0120     		movne	r0, #1
 1399 001a 10BD     		pop	{r4, pc}
 1400              	.L150:
 1401              		.align	2
 1402              	.L149:
 1403 001c 00000000 		.word	buffer
 1404 0020 00000000 		.word	devAddr
 1405              		.cfi_endproc
 1406              	.LFE39:
 1407              		.size	MPU9250_getXGyroFIFOEnabled, .-MPU9250_getXGyroFIFOEnabled
 1408              		.section	.text.MPU9250_setXGyroFIFOEnabled,"ax",%progbits
 1409              		.align	2
 1410              		.global	MPU9250_setXGyroFIFOEnabled
 1411              		.thumb
 1412              		.thumb_func
 1413              		.type	MPU9250_setXGyroFIFOEnabled, %function
 1414              	MPU9250_setXGyroFIFOEnabled:
 1415              	.LFB40:
 620:mpu_9250.c    **** /** Set gyroscope X-axis FIFO enabled value.
 621:mpu_9250.c    ****  * @param enabled New gyroscope X-axis FIFO enabled value
 622:mpu_9250.c    ****  * @see getXGyroFIFOEnabled()
 623:mpu_9250.c    ****  * @see MPU9250_RA_FIFO_EN
 624:mpu_9250.c    ****  */
 625:mpu_9250.c    **** void MPU9250_setXGyroFIFOEnabled(bool enabled) {
 1416              		.loc 1 625 0
 1417              		.cfi_startproc
 1418              		@ args = 0, pretend = 0, frame = 0
 1419              		@ frame_needed = 0, uses_anonymous_args = 0
 1420              	.LVL73:
 1421 0000 08B5     		push	{r3, lr}
 1422              		.cfi_def_cfa_offset 8
 1423              		.cfi_offset 3, -8
 1424              		.cfi_offset 14, -4
 1425 0002 0346     		mov	r3, r0
 626:mpu_9250.c    ****     I2CWriteBit(devAddr, MPU9250_RA_FIFO_EN, MPU9250_XG_FIFO_EN_BIT, enabled);
 1426              		.loc 1 626 0
ARM GAS  C:\Users\hima\AppData\Local\Temp\ccR4vqcc.s 			page 37


 1427 0004 034A     		ldr	r2, .L153
 1428 0006 1078     		ldrb	r0, [r2]	@ zero_extendqisi2
 1429              	.LVL74:
 1430 0008 2321     		movs	r1, #35
 1431 000a 0622     		movs	r2, #6
 1432 000c FFF7FEFF 		bl	I2CWriteBit
 1433              	.LVL75:
 1434 0010 08BD     		pop	{r3, pc}
 1435              	.L154:
 1436 0012 00BF     		.align	2
 1437              	.L153:
 1438 0014 00000000 		.word	devAddr
 1439              		.cfi_endproc
 1440              	.LFE40:
 1441              		.size	MPU9250_setXGyroFIFOEnabled, .-MPU9250_setXGyroFIFOEnabled
 1442              		.section	.text.MPU9250_getYGyroFIFOEnabled,"ax",%progbits
 1443              		.align	2
 1444              		.global	MPU9250_getYGyroFIFOEnabled
 1445              		.thumb
 1446              		.thumb_func
 1447              		.type	MPU9250_getYGyroFIFOEnabled, %function
 1448              	MPU9250_getYGyroFIFOEnabled:
 1449              	.LFB41:
 627:mpu_9250.c    **** }
 628:mpu_9250.c    **** /** Get gyroscope Y-axis FIFO enabled value.
 629:mpu_9250.c    ****  * When set to 1, this bit enables GYRO_YOUT_H and GYRO_YOUT_L (Registers 69 and
 630:mpu_9250.c    ****  * 70) to be written into the FIFO buffer.
 631:mpu_9250.c    ****  * @return Current gyroscope Y-axis FIFO enabled value
 632:mpu_9250.c    ****  * @see MPU9250_RA_FIFO_EN
 633:mpu_9250.c    ****  */
 634:mpu_9250.c    **** bool MPU9250_getYGyroFIFOEnabled() {
 1450              		.loc 1 634 0
 1451              		.cfi_startproc
 1452              		@ args = 0, pretend = 0, frame = 0
 1453              		@ frame_needed = 0, uses_anonymous_args = 0
 1454 0000 10B5     		push	{r4, lr}
 1455              		.cfi_def_cfa_offset 8
 1456              		.cfi_offset 4, -8
 1457              		.cfi_offset 14, -4
 635:mpu_9250.c    ****     I2CReadBit(devAddr, MPU9250_RA_FIFO_EN, MPU9250_YG_FIFO_EN_BIT, buffer);
 1458              		.loc 1 635 0
 1459 0002 064C     		ldr	r4, .L157
 1460 0004 064B     		ldr	r3, .L157+4
 1461 0006 1878     		ldrb	r0, [r3]	@ zero_extendqisi2
 1462 0008 2321     		movs	r1, #35
 1463 000a 0522     		movs	r2, #5
 1464 000c 2346     		mov	r3, r4
 1465 000e FFF7FEFF 		bl	I2CReadBit
 1466              	.LVL76:
 636:mpu_9250.c    ****     return buffer[0];
 1467              		.loc 1 636 0
 1468 0012 2078     		ldrb	r0, [r4]	@ zero_extendqisi2
 637:mpu_9250.c    **** }
 1469              		.loc 1 637 0
 1470 0014 0030     		adds	r0, r0, #0
 1471 0016 18BF     		it	ne
 1472 0018 0120     		movne	r0, #1
ARM GAS  C:\Users\hima\AppData\Local\Temp\ccR4vqcc.s 			page 38


 1473 001a 10BD     		pop	{r4, pc}
 1474              	.L158:
 1475              		.align	2
 1476              	.L157:
 1477 001c 00000000 		.word	buffer
 1478 0020 00000000 		.word	devAddr
 1479              		.cfi_endproc
 1480              	.LFE41:
 1481              		.size	MPU9250_getYGyroFIFOEnabled, .-MPU9250_getYGyroFIFOEnabled
 1482              		.section	.text.MPU9250_setYGyroFIFOEnabled,"ax",%progbits
 1483              		.align	2
 1484              		.global	MPU9250_setYGyroFIFOEnabled
 1485              		.thumb
 1486              		.thumb_func
 1487              		.type	MPU9250_setYGyroFIFOEnabled, %function
 1488              	MPU9250_setYGyroFIFOEnabled:
 1489              	.LFB42:
 638:mpu_9250.c    **** /** Set gyroscope Y-axis FIFO enabled value.
 639:mpu_9250.c    ****  * @param enabled New gyroscope Y-axis FIFO enabled value
 640:mpu_9250.c    ****  * @see getYGyroFIFOEnabled()
 641:mpu_9250.c    ****  * @see MPU9250_RA_FIFO_EN
 642:mpu_9250.c    ****  */
 643:mpu_9250.c    **** void MPU9250_setYGyroFIFOEnabled(bool enabled) {
 1490              		.loc 1 643 0
 1491              		.cfi_startproc
 1492              		@ args = 0, pretend = 0, frame = 0
 1493              		@ frame_needed = 0, uses_anonymous_args = 0
 1494              	.LVL77:
 1495 0000 08B5     		push	{r3, lr}
 1496              		.cfi_def_cfa_offset 8
 1497              		.cfi_offset 3, -8
 1498              		.cfi_offset 14, -4
 1499 0002 0346     		mov	r3, r0
 644:mpu_9250.c    ****     I2CWriteBit(devAddr, MPU9250_RA_FIFO_EN, MPU9250_YG_FIFO_EN_BIT, enabled);
 1500              		.loc 1 644 0
 1501 0004 034A     		ldr	r2, .L161
 1502 0006 1078     		ldrb	r0, [r2]	@ zero_extendqisi2
 1503              	.LVL78:
 1504 0008 2321     		movs	r1, #35
 1505 000a 0522     		movs	r2, #5
 1506 000c FFF7FEFF 		bl	I2CWriteBit
 1507              	.LVL79:
 1508 0010 08BD     		pop	{r3, pc}
 1509              	.L162:
 1510 0012 00BF     		.align	2
 1511              	.L161:
 1512 0014 00000000 		.word	devAddr
 1513              		.cfi_endproc
 1514              	.LFE42:
 1515              		.size	MPU9250_setYGyroFIFOEnabled, .-MPU9250_setYGyroFIFOEnabled
 1516              		.section	.text.MPU9250_getZGyroFIFOEnabled,"ax",%progbits
 1517              		.align	2
 1518              		.global	MPU9250_getZGyroFIFOEnabled
 1519              		.thumb
 1520              		.thumb_func
 1521              		.type	MPU9250_getZGyroFIFOEnabled, %function
 1522              	MPU9250_getZGyroFIFOEnabled:
ARM GAS  C:\Users\hima\AppData\Local\Temp\ccR4vqcc.s 			page 39


 1523              	.LFB43:
 645:mpu_9250.c    **** }
 646:mpu_9250.c    **** /** Get gyroscope Z-axis FIFO enabled value.
 647:mpu_9250.c    ****  * When set to 1, this bit enables GYRO_ZOUT_H and GYRO_ZOUT_L (Registers 71 and
 648:mpu_9250.c    ****  * 72) to be written into the FIFO buffer.
 649:mpu_9250.c    ****  * @return Current gyroscope Z-axis FIFO enabled value
 650:mpu_9250.c    ****  * @see MPU9250_RA_FIFO_EN
 651:mpu_9250.c    ****  */
 652:mpu_9250.c    **** bool MPU9250_getZGyroFIFOEnabled() {
 1524              		.loc 1 652 0
 1525              		.cfi_startproc
 1526              		@ args = 0, pretend = 0, frame = 0
 1527              		@ frame_needed = 0, uses_anonymous_args = 0
 1528 0000 10B5     		push	{r4, lr}
 1529              		.cfi_def_cfa_offset 8
 1530              		.cfi_offset 4, -8
 1531              		.cfi_offset 14, -4
 653:mpu_9250.c    ****     I2CReadBit(devAddr, MPU9250_RA_FIFO_EN, MPU9250_ZG_FIFO_EN_BIT, buffer);
 1532              		.loc 1 653 0
 1533 0002 064C     		ldr	r4, .L165
 1534 0004 064B     		ldr	r3, .L165+4
 1535 0006 1878     		ldrb	r0, [r3]	@ zero_extendqisi2
 1536 0008 2321     		movs	r1, #35
 1537 000a 0422     		movs	r2, #4
 1538 000c 2346     		mov	r3, r4
 1539 000e FFF7FEFF 		bl	I2CReadBit
 1540              	.LVL80:
 654:mpu_9250.c    ****     return buffer[0];
 1541              		.loc 1 654 0
 1542 0012 2078     		ldrb	r0, [r4]	@ zero_extendqisi2
 655:mpu_9250.c    **** }
 1543              		.loc 1 655 0
 1544 0014 0030     		adds	r0, r0, #0
 1545 0016 18BF     		it	ne
 1546 0018 0120     		movne	r0, #1
 1547 001a 10BD     		pop	{r4, pc}
 1548              	.L166:
 1549              		.align	2
 1550              	.L165:
 1551 001c 00000000 		.word	buffer
 1552 0020 00000000 		.word	devAddr
 1553              		.cfi_endproc
 1554              	.LFE43:
 1555              		.size	MPU9250_getZGyroFIFOEnabled, .-MPU9250_getZGyroFIFOEnabled
 1556              		.section	.text.MPU9250_setZGyroFIFOEnabled,"ax",%progbits
 1557              		.align	2
 1558              		.global	MPU9250_setZGyroFIFOEnabled
 1559              		.thumb
 1560              		.thumb_func
 1561              		.type	MPU9250_setZGyroFIFOEnabled, %function
 1562              	MPU9250_setZGyroFIFOEnabled:
 1563              	.LFB44:
 656:mpu_9250.c    **** /** Set gyroscope Z-axis FIFO enabled value.
 657:mpu_9250.c    ****  * @param enabled New gyroscope Z-axis FIFO enabled value
 658:mpu_9250.c    ****  * @see getZGyroFIFOEnabled()
 659:mpu_9250.c    ****  * @see MPU9250_RA_FIFO_EN
 660:mpu_9250.c    ****  */
ARM GAS  C:\Users\hima\AppData\Local\Temp\ccR4vqcc.s 			page 40


 661:mpu_9250.c    **** void MPU9250_setZGyroFIFOEnabled(bool enabled) {
 1564              		.loc 1 661 0
 1565              		.cfi_startproc
 1566              		@ args = 0, pretend = 0, frame = 0
 1567              		@ frame_needed = 0, uses_anonymous_args = 0
 1568              	.LVL81:
 1569 0000 08B5     		push	{r3, lr}
 1570              		.cfi_def_cfa_offset 8
 1571              		.cfi_offset 3, -8
 1572              		.cfi_offset 14, -4
 1573 0002 0346     		mov	r3, r0
 662:mpu_9250.c    ****     I2CWriteBit(devAddr, MPU9250_RA_FIFO_EN, MPU9250_ZG_FIFO_EN_BIT, enabled);
 1574              		.loc 1 662 0
 1575 0004 034A     		ldr	r2, .L169
 1576 0006 1078     		ldrb	r0, [r2]	@ zero_extendqisi2
 1577              	.LVL82:
 1578 0008 2321     		movs	r1, #35
 1579 000a 0422     		movs	r2, #4
 1580 000c FFF7FEFF 		bl	I2CWriteBit
 1581              	.LVL83:
 1582 0010 08BD     		pop	{r3, pc}
 1583              	.L170:
 1584 0012 00BF     		.align	2
 1585              	.L169:
 1586 0014 00000000 		.word	devAddr
 1587              		.cfi_endproc
 1588              	.LFE44:
 1589              		.size	MPU9250_setZGyroFIFOEnabled, .-MPU9250_setZGyroFIFOEnabled
 1590              		.section	.text.MPU9250_getAccelFIFOEnabled,"ax",%progbits
 1591              		.align	2
 1592              		.global	MPU9250_getAccelFIFOEnabled
 1593              		.thumb
 1594              		.thumb_func
 1595              		.type	MPU9250_getAccelFIFOEnabled, %function
 1596              	MPU9250_getAccelFIFOEnabled:
 1597              	.LFB45:
 663:mpu_9250.c    **** }
 664:mpu_9250.c    **** /** Get accelerometer FIFO enabled value.
 665:mpu_9250.c    ****  * When set to 1, this bit enables ACCEL_XOUT_H, ACCEL_XOUT_L, ACCEL_YOUT_H,
 666:mpu_9250.c    ****  * ACCEL_YOUT_L, ACCEL_ZOUT_H, and ACCEL_ZOUT_L (Registers 59 to 64) to be
 667:mpu_9250.c    ****  * written into the FIFO buffer.
 668:mpu_9250.c    ****  * @return Current accelerometer FIFO enabled value
 669:mpu_9250.c    ****  * @see MPU9250_RA_FIFO_EN
 670:mpu_9250.c    ****  */
 671:mpu_9250.c    **** bool MPU9250_getAccelFIFOEnabled() {
 1598              		.loc 1 671 0
 1599              		.cfi_startproc
 1600              		@ args = 0, pretend = 0, frame = 0
 1601              		@ frame_needed = 0, uses_anonymous_args = 0
 1602 0000 10B5     		push	{r4, lr}
 1603              		.cfi_def_cfa_offset 8
 1604              		.cfi_offset 4, -8
 1605              		.cfi_offset 14, -4
 672:mpu_9250.c    ****     I2CReadBit(devAddr, MPU9250_RA_FIFO_EN, MPU9250_ACCEL_FIFO_EN_BIT, buffer);
 1606              		.loc 1 672 0
 1607 0002 064C     		ldr	r4, .L173
 1608 0004 064B     		ldr	r3, .L173+4
ARM GAS  C:\Users\hima\AppData\Local\Temp\ccR4vqcc.s 			page 41


 1609 0006 1878     		ldrb	r0, [r3]	@ zero_extendqisi2
 1610 0008 2321     		movs	r1, #35
 1611 000a 0322     		movs	r2, #3
 1612 000c 2346     		mov	r3, r4
 1613 000e FFF7FEFF 		bl	I2CReadBit
 1614              	.LVL84:
 673:mpu_9250.c    ****     return buffer[0];
 1615              		.loc 1 673 0
 1616 0012 2078     		ldrb	r0, [r4]	@ zero_extendqisi2
 674:mpu_9250.c    **** }
 1617              		.loc 1 674 0
 1618 0014 0030     		adds	r0, r0, #0
 1619 0016 18BF     		it	ne
 1620 0018 0120     		movne	r0, #1
 1621 001a 10BD     		pop	{r4, pc}
 1622              	.L174:
 1623              		.align	2
 1624              	.L173:
 1625 001c 00000000 		.word	buffer
 1626 0020 00000000 		.word	devAddr
 1627              		.cfi_endproc
 1628              	.LFE45:
 1629              		.size	MPU9250_getAccelFIFOEnabled, .-MPU9250_getAccelFIFOEnabled
 1630              		.section	.text.MPU9250_setAccelFIFOEnabled,"ax",%progbits
 1631              		.align	2
 1632              		.global	MPU9250_setAccelFIFOEnabled
 1633              		.thumb
 1634              		.thumb_func
 1635              		.type	MPU9250_setAccelFIFOEnabled, %function
 1636              	MPU9250_setAccelFIFOEnabled:
 1637              	.LFB46:
 675:mpu_9250.c    **** /** Set accelerometer FIFO enabled value.
 676:mpu_9250.c    ****  * @param enabled New accelerometer FIFO enabled value
 677:mpu_9250.c    ****  * @see getAccelFIFOEnabled()
 678:mpu_9250.c    ****  * @see MPU9250_RA_FIFO_EN
 679:mpu_9250.c    ****  */
 680:mpu_9250.c    **** void MPU9250_setAccelFIFOEnabled(bool enabled) {
 1638              		.loc 1 680 0
 1639              		.cfi_startproc
 1640              		@ args = 0, pretend = 0, frame = 0
 1641              		@ frame_needed = 0, uses_anonymous_args = 0
 1642              	.LVL85:
 1643 0000 08B5     		push	{r3, lr}
 1644              		.cfi_def_cfa_offset 8
 1645              		.cfi_offset 3, -8
 1646              		.cfi_offset 14, -4
 1647 0002 0346     		mov	r3, r0
 681:mpu_9250.c    ****     I2CWriteBit(devAddr, MPU9250_RA_FIFO_EN, MPU9250_ACCEL_FIFO_EN_BIT, enabled);
 1648              		.loc 1 681 0
 1649 0004 034A     		ldr	r2, .L177
 1650 0006 1078     		ldrb	r0, [r2]	@ zero_extendqisi2
 1651              	.LVL86:
 1652 0008 2321     		movs	r1, #35
 1653 000a 0322     		movs	r2, #3
 1654 000c FFF7FEFF 		bl	I2CWriteBit
 1655              	.LVL87:
 1656 0010 08BD     		pop	{r3, pc}
ARM GAS  C:\Users\hima\AppData\Local\Temp\ccR4vqcc.s 			page 42


 1657              	.L178:
 1658 0012 00BF     		.align	2
 1659              	.L177:
 1660 0014 00000000 		.word	devAddr
 1661              		.cfi_endproc
 1662              	.LFE46:
 1663              		.size	MPU9250_setAccelFIFOEnabled, .-MPU9250_setAccelFIFOEnabled
 1664              		.section	.text.MPU9250_getSlave2FIFOEnabled,"ax",%progbits
 1665              		.align	2
 1666              		.global	MPU9250_getSlave2FIFOEnabled
 1667              		.thumb
 1668              		.thumb_func
 1669              		.type	MPU9250_getSlave2FIFOEnabled, %function
 1670              	MPU9250_getSlave2FIFOEnabled:
 1671              	.LFB47:
 682:mpu_9250.c    **** }
 683:mpu_9250.c    **** /** Get Slave 2 FIFO enabled value.
 684:mpu_9250.c    ****  * When set to 1, this bit enables EXT_SENS_DATA registers (Registers 73 to 96)
 685:mpu_9250.c    ****  * associated with Slave 2 to be written into the FIFO buffer.
 686:mpu_9250.c    ****  * @return Current Slave 2 FIFO enabled value
 687:mpu_9250.c    ****  * @see MPU9250_RA_FIFO_EN
 688:mpu_9250.c    ****  */
 689:mpu_9250.c    **** bool MPU9250_getSlave2FIFOEnabled() {
 1672              		.loc 1 689 0
 1673              		.cfi_startproc
 1674              		@ args = 0, pretend = 0, frame = 0
 1675              		@ frame_needed = 0, uses_anonymous_args = 0
 1676 0000 10B5     		push	{r4, lr}
 1677              		.cfi_def_cfa_offset 8
 1678              		.cfi_offset 4, -8
 1679              		.cfi_offset 14, -4
 690:mpu_9250.c    ****     I2CReadBit(devAddr, MPU9250_RA_FIFO_EN, MPU9250_SLV2_FIFO_EN_BIT, buffer);
 1680              		.loc 1 690 0
 1681 0002 064C     		ldr	r4, .L181
 1682 0004 064B     		ldr	r3, .L181+4
 1683 0006 1878     		ldrb	r0, [r3]	@ zero_extendqisi2
 1684 0008 2321     		movs	r1, #35
 1685 000a 0222     		movs	r2, #2
 1686 000c 2346     		mov	r3, r4
 1687 000e FFF7FEFF 		bl	I2CReadBit
 1688              	.LVL88:
 691:mpu_9250.c    ****     return buffer[0];
 1689              		.loc 1 691 0
 1690 0012 2078     		ldrb	r0, [r4]	@ zero_extendqisi2
 692:mpu_9250.c    **** }
 1691              		.loc 1 692 0
 1692 0014 0030     		adds	r0, r0, #0
 1693 0016 18BF     		it	ne
 1694 0018 0120     		movne	r0, #1
 1695 001a 10BD     		pop	{r4, pc}
 1696              	.L182:
 1697              		.align	2
 1698              	.L181:
 1699 001c 00000000 		.word	buffer
 1700 0020 00000000 		.word	devAddr
 1701              		.cfi_endproc
 1702              	.LFE47:
ARM GAS  C:\Users\hima\AppData\Local\Temp\ccR4vqcc.s 			page 43


 1703              		.size	MPU9250_getSlave2FIFOEnabled, .-MPU9250_getSlave2FIFOEnabled
 1704              		.section	.text.MPU9250_setSlave2FIFOEnabled,"ax",%progbits
 1705              		.align	2
 1706              		.global	MPU9250_setSlave2FIFOEnabled
 1707              		.thumb
 1708              		.thumb_func
 1709              		.type	MPU9250_setSlave2FIFOEnabled, %function
 1710              	MPU9250_setSlave2FIFOEnabled:
 1711              	.LFB48:
 693:mpu_9250.c    **** /** Set Slave 2 FIFO enabled value.
 694:mpu_9250.c    ****  * @param enabled New Slave 2 FIFO enabled value
 695:mpu_9250.c    ****  * @see getSlave2FIFOEnabled()
 696:mpu_9250.c    ****  * @see MPU9250_RA_FIFO_EN
 697:mpu_9250.c    ****  */
 698:mpu_9250.c    **** void MPU9250_setSlave2FIFOEnabled(bool enabled) {
 1712              		.loc 1 698 0
 1713              		.cfi_startproc
 1714              		@ args = 0, pretend = 0, frame = 0
 1715              		@ frame_needed = 0, uses_anonymous_args = 0
 1716              	.LVL89:
 1717 0000 08B5     		push	{r3, lr}
 1718              		.cfi_def_cfa_offset 8
 1719              		.cfi_offset 3, -8
 1720              		.cfi_offset 14, -4
 1721 0002 0346     		mov	r3, r0
 699:mpu_9250.c    ****     I2CWriteBit(devAddr, MPU9250_RA_FIFO_EN, MPU9250_SLV2_FIFO_EN_BIT, enabled);
 1722              		.loc 1 699 0
 1723 0004 034A     		ldr	r2, .L185
 1724 0006 1078     		ldrb	r0, [r2]	@ zero_extendqisi2
 1725              	.LVL90:
 1726 0008 2321     		movs	r1, #35
 1727 000a 0222     		movs	r2, #2
 1728 000c FFF7FEFF 		bl	I2CWriteBit
 1729              	.LVL91:
 1730 0010 08BD     		pop	{r3, pc}
 1731              	.L186:
 1732 0012 00BF     		.align	2
 1733              	.L185:
 1734 0014 00000000 		.word	devAddr
 1735              		.cfi_endproc
 1736              	.LFE48:
 1737              		.size	MPU9250_setSlave2FIFOEnabled, .-MPU9250_setSlave2FIFOEnabled
 1738              		.section	.text.MPU9250_getSlave1FIFOEnabled,"ax",%progbits
 1739              		.align	2
 1740              		.global	MPU9250_getSlave1FIFOEnabled
 1741              		.thumb
 1742              		.thumb_func
 1743              		.type	MPU9250_getSlave1FIFOEnabled, %function
 1744              	MPU9250_getSlave1FIFOEnabled:
 1745              	.LFB49:
 700:mpu_9250.c    **** }
 701:mpu_9250.c    **** /** Get Slave 1 FIFO enabled value.
 702:mpu_9250.c    ****  * When set to 1, this bit enables EXT_SENS_DATA registers (Registers 73 to 96)
 703:mpu_9250.c    ****  * associated with Slave 1 to be written into the FIFO buffer.
 704:mpu_9250.c    ****  * @return Current Slave 1 FIFO enabled value
 705:mpu_9250.c    ****  * @see MPU9250_RA_FIFO_EN
 706:mpu_9250.c    ****  */
ARM GAS  C:\Users\hima\AppData\Local\Temp\ccR4vqcc.s 			page 44


 707:mpu_9250.c    **** bool MPU9250_getSlave1FIFOEnabled() {
 1746              		.loc 1 707 0
 1747              		.cfi_startproc
 1748              		@ args = 0, pretend = 0, frame = 0
 1749              		@ frame_needed = 0, uses_anonymous_args = 0
 1750 0000 10B5     		push	{r4, lr}
 1751              		.cfi_def_cfa_offset 8
 1752              		.cfi_offset 4, -8
 1753              		.cfi_offset 14, -4
 708:mpu_9250.c    ****     I2CReadBit(devAddr, MPU9250_RA_FIFO_EN, MPU9250_SLV1_FIFO_EN_BIT, buffer);
 1754              		.loc 1 708 0
 1755 0002 064C     		ldr	r4, .L189
 1756 0004 064B     		ldr	r3, .L189+4
 1757 0006 1878     		ldrb	r0, [r3]	@ zero_extendqisi2
 1758 0008 2321     		movs	r1, #35
 1759 000a 0122     		movs	r2, #1
 1760 000c 2346     		mov	r3, r4
 1761 000e FFF7FEFF 		bl	I2CReadBit
 1762              	.LVL92:
 709:mpu_9250.c    ****     return buffer[0];
 1763              		.loc 1 709 0
 1764 0012 2078     		ldrb	r0, [r4]	@ zero_extendqisi2
 710:mpu_9250.c    **** }
 1765              		.loc 1 710 0
 1766 0014 0030     		adds	r0, r0, #0
 1767 0016 18BF     		it	ne
 1768 0018 0120     		movne	r0, #1
 1769 001a 10BD     		pop	{r4, pc}
 1770              	.L190:
 1771              		.align	2
 1772              	.L189:
 1773 001c 00000000 		.word	buffer
 1774 0020 00000000 		.word	devAddr
 1775              		.cfi_endproc
 1776              	.LFE49:
 1777              		.size	MPU9250_getSlave1FIFOEnabled, .-MPU9250_getSlave1FIFOEnabled
 1778              		.section	.text.MPU9250_setSlave1FIFOEnabled,"ax",%progbits
 1779              		.align	2
 1780              		.global	MPU9250_setSlave1FIFOEnabled
 1781              		.thumb
 1782              		.thumb_func
 1783              		.type	MPU9250_setSlave1FIFOEnabled, %function
 1784              	MPU9250_setSlave1FIFOEnabled:
 1785              	.LFB50:
 711:mpu_9250.c    **** /** Set Slave 1 FIFO enabled value.
 712:mpu_9250.c    ****  * @param enabled New Slave 1 FIFO enabled value
 713:mpu_9250.c    ****  * @see getSlave1FIFOEnabled()
 714:mpu_9250.c    ****  * @see MPU9250_RA_FIFO_EN
 715:mpu_9250.c    ****  */
 716:mpu_9250.c    **** void MPU9250_setSlave1FIFOEnabled(bool enabled) {
 1786              		.loc 1 716 0
 1787              		.cfi_startproc
 1788              		@ args = 0, pretend = 0, frame = 0
 1789              		@ frame_needed = 0, uses_anonymous_args = 0
 1790              	.LVL93:
 1791 0000 08B5     		push	{r3, lr}
 1792              		.cfi_def_cfa_offset 8
ARM GAS  C:\Users\hima\AppData\Local\Temp\ccR4vqcc.s 			page 45


 1793              		.cfi_offset 3, -8
 1794              		.cfi_offset 14, -4
 1795 0002 0346     		mov	r3, r0
 717:mpu_9250.c    ****     I2CWriteBit(devAddr, MPU9250_RA_FIFO_EN, MPU9250_SLV1_FIFO_EN_BIT, enabled);
 1796              		.loc 1 717 0
 1797 0004 034A     		ldr	r2, .L193
 1798 0006 1078     		ldrb	r0, [r2]	@ zero_extendqisi2
 1799              	.LVL94:
 1800 0008 2321     		movs	r1, #35
 1801 000a 0122     		movs	r2, #1
 1802 000c FFF7FEFF 		bl	I2CWriteBit
 1803              	.LVL95:
 1804 0010 08BD     		pop	{r3, pc}
 1805              	.L194:
 1806 0012 00BF     		.align	2
 1807              	.L193:
 1808 0014 00000000 		.word	devAddr
 1809              		.cfi_endproc
 1810              	.LFE50:
 1811              		.size	MPU9250_setSlave1FIFOEnabled, .-MPU9250_setSlave1FIFOEnabled
 1812              		.section	.text.MPU9250_getSlave0FIFOEnabled,"ax",%progbits
 1813              		.align	2
 1814              		.global	MPU9250_getSlave0FIFOEnabled
 1815              		.thumb
 1816              		.thumb_func
 1817              		.type	MPU9250_getSlave0FIFOEnabled, %function
 1818              	MPU9250_getSlave0FIFOEnabled:
 1819              	.LFB51:
 718:mpu_9250.c    **** }
 719:mpu_9250.c    **** /** Get Slave 0 FIFO enabled value.
 720:mpu_9250.c    ****  * When set to 1, this bit enables EXT_SENS_DATA registers (Registers 73 to 96)
 721:mpu_9250.c    ****  * associated with Slave 0 to be written into the FIFO buffer.
 722:mpu_9250.c    ****  * @return Current Slave 0 FIFO enabled value
 723:mpu_9250.c    ****  * @see MPU9250_RA_FIFO_EN
 724:mpu_9250.c    ****  */
 725:mpu_9250.c    **** bool MPU9250_getSlave0FIFOEnabled() {
 1820              		.loc 1 725 0
 1821              		.cfi_startproc
 1822              		@ args = 0, pretend = 0, frame = 0
 1823              		@ frame_needed = 0, uses_anonymous_args = 0
 1824 0000 10B5     		push	{r4, lr}
 1825              		.cfi_def_cfa_offset 8
 1826              		.cfi_offset 4, -8
 1827              		.cfi_offset 14, -4
 726:mpu_9250.c    ****     I2CReadBit(devAddr, MPU9250_RA_FIFO_EN, MPU9250_SLV0_FIFO_EN_BIT, buffer);
 1828              		.loc 1 726 0
 1829 0002 064C     		ldr	r4, .L197
 1830 0004 064B     		ldr	r3, .L197+4
 1831 0006 1878     		ldrb	r0, [r3]	@ zero_extendqisi2
 1832 0008 2321     		movs	r1, #35
 1833 000a 0022     		movs	r2, #0
 1834 000c 2346     		mov	r3, r4
 1835 000e FFF7FEFF 		bl	I2CReadBit
 1836              	.LVL96:
 727:mpu_9250.c    ****     return buffer[0];
 1837              		.loc 1 727 0
 1838 0012 2078     		ldrb	r0, [r4]	@ zero_extendqisi2
ARM GAS  C:\Users\hima\AppData\Local\Temp\ccR4vqcc.s 			page 46


 728:mpu_9250.c    **** }
 1839              		.loc 1 728 0
 1840 0014 0030     		adds	r0, r0, #0
 1841 0016 18BF     		it	ne
 1842 0018 0120     		movne	r0, #1
 1843 001a 10BD     		pop	{r4, pc}
 1844              	.L198:
 1845              		.align	2
 1846              	.L197:
 1847 001c 00000000 		.word	buffer
 1848 0020 00000000 		.word	devAddr
 1849              		.cfi_endproc
 1850              	.LFE51:
 1851              		.size	MPU9250_getSlave0FIFOEnabled, .-MPU9250_getSlave0FIFOEnabled
 1852              		.section	.text.MPU9250_setSlave0FIFOEnabled,"ax",%progbits
 1853              		.align	2
 1854              		.global	MPU9250_setSlave0FIFOEnabled
 1855              		.thumb
 1856              		.thumb_func
 1857              		.type	MPU9250_setSlave0FIFOEnabled, %function
 1858              	MPU9250_setSlave0FIFOEnabled:
 1859              	.LFB52:
 729:mpu_9250.c    **** /** Set Slave 0 FIFO enabled value.
 730:mpu_9250.c    ****  * @param enabled New Slave 0 FIFO enabled value
 731:mpu_9250.c    ****  * @see getSlave0FIFOEnabled()
 732:mpu_9250.c    ****  * @see MPU9250_RA_FIFO_EN
 733:mpu_9250.c    ****  */
 734:mpu_9250.c    **** void MPU9250_setSlave0FIFOEnabled(bool enabled) {
 1860              		.loc 1 734 0
 1861              		.cfi_startproc
 1862              		@ args = 0, pretend = 0, frame = 0
 1863              		@ frame_needed = 0, uses_anonymous_args = 0
 1864              	.LVL97:
 1865 0000 08B5     		push	{r3, lr}
 1866              		.cfi_def_cfa_offset 8
 1867              		.cfi_offset 3, -8
 1868              		.cfi_offset 14, -4
 1869 0002 0346     		mov	r3, r0
 735:mpu_9250.c    ****     I2CWriteBit(devAddr, MPU9250_RA_FIFO_EN, MPU9250_SLV0_FIFO_EN_BIT, enabled);
 1870              		.loc 1 735 0
 1871 0004 034A     		ldr	r2, .L201
 1872 0006 1078     		ldrb	r0, [r2]	@ zero_extendqisi2
 1873              	.LVL98:
 1874 0008 2321     		movs	r1, #35
 1875 000a 0022     		movs	r2, #0
 1876 000c FFF7FEFF 		bl	I2CWriteBit
 1877              	.LVL99:
 1878 0010 08BD     		pop	{r3, pc}
 1879              	.L202:
 1880 0012 00BF     		.align	2
 1881              	.L201:
 1882 0014 00000000 		.word	devAddr
 1883              		.cfi_endproc
 1884              	.LFE52:
 1885              		.size	MPU9250_setSlave0FIFOEnabled, .-MPU9250_setSlave0FIFOEnabled
 1886              		.section	.text.MPU9250_getMultiMasterEnabled,"ax",%progbits
 1887              		.align	2
ARM GAS  C:\Users\hima\AppData\Local\Temp\ccR4vqcc.s 			page 47


 1888              		.global	MPU9250_getMultiMasterEnabled
 1889              		.thumb
 1890              		.thumb_func
 1891              		.type	MPU9250_getMultiMasterEnabled, %function
 1892              	MPU9250_getMultiMasterEnabled:
 1893              	.LFB53:
 736:mpu_9250.c    **** }
 737:mpu_9250.c    **** 
 738:mpu_9250.c    **** // I2C_MST_CTRL register
 739:mpu_9250.c    **** 
 740:mpu_9250.c    **** /** Get multi-master enabled value.
 741:mpu_9250.c    ****  * Multi-master capability allows multiple I2C masters to operate on the same
 742:mpu_9250.c    ****  * bus. In circuits where multi-master capability is required, set MULT_MST_EN
 743:mpu_9250.c    ****  * to 1. This will increase current drawn by approximately 30uA.
 744:mpu_9250.c    ****  *
 745:mpu_9250.c    ****  * In circuits where multi-master capability is required, the state of the I2C
 746:mpu_9250.c    ****  * bus must always be monitored by each separate I2C Master. Before an I2C
 747:mpu_9250.c    ****  * Master can assume arbitration of the bus, it must first confirm that no other
 748:mpu_9250.c    ****  * I2C Master has arbitration of the bus. When MULT_MST_EN is set to 1, the
 749:mpu_9250.c    ****  * MPU-60X0's bus arbitration detection logic is turned on, enabling it to
 750:mpu_9250.c    ****  * detect when the bus is available.
 751:mpu_9250.c    ****  *
 752:mpu_9250.c    ****  * @return Current multi-master enabled value
 753:mpu_9250.c    ****  * @see MPU9250_RA_I2C_MST_CTRL
 754:mpu_9250.c    ****  */
 755:mpu_9250.c    **** bool MPU9250_getMultiMasterEnabled() {
 1894              		.loc 1 755 0
 1895              		.cfi_startproc
 1896              		@ args = 0, pretend = 0, frame = 0
 1897              		@ frame_needed = 0, uses_anonymous_args = 0
 1898 0000 10B5     		push	{r4, lr}
 1899              		.cfi_def_cfa_offset 8
 1900              		.cfi_offset 4, -8
 1901              		.cfi_offset 14, -4
 756:mpu_9250.c    ****     I2CReadBit(devAddr, MPU9250_RA_I2C_MST_CTRL, MPU9250_MULT_MST_EN_BIT, buffer);
 1902              		.loc 1 756 0
 1903 0002 064C     		ldr	r4, .L205
 1904 0004 064B     		ldr	r3, .L205+4
 1905 0006 1878     		ldrb	r0, [r3]	@ zero_extendqisi2
 1906 0008 2421     		movs	r1, #36
 1907 000a 0722     		movs	r2, #7
 1908 000c 2346     		mov	r3, r4
 1909 000e FFF7FEFF 		bl	I2CReadBit
 1910              	.LVL100:
 757:mpu_9250.c    ****     return buffer[0];
 1911              		.loc 1 757 0
 1912 0012 2078     		ldrb	r0, [r4]	@ zero_extendqisi2
 758:mpu_9250.c    **** }
 1913              		.loc 1 758 0
 1914 0014 0030     		adds	r0, r0, #0
 1915 0016 18BF     		it	ne
 1916 0018 0120     		movne	r0, #1
 1917 001a 10BD     		pop	{r4, pc}
 1918              	.L206:
 1919              		.align	2
 1920              	.L205:
 1921 001c 00000000 		.word	buffer
ARM GAS  C:\Users\hima\AppData\Local\Temp\ccR4vqcc.s 			page 48


 1922 0020 00000000 		.word	devAddr
 1923              		.cfi_endproc
 1924              	.LFE53:
 1925              		.size	MPU9250_getMultiMasterEnabled, .-MPU9250_getMultiMasterEnabled
 1926              		.section	.text.MPU9250_setMultiMasterEnabled,"ax",%progbits
 1927              		.align	2
 1928              		.global	MPU9250_setMultiMasterEnabled
 1929              		.thumb
 1930              		.thumb_func
 1931              		.type	MPU9250_setMultiMasterEnabled, %function
 1932              	MPU9250_setMultiMasterEnabled:
 1933              	.LFB54:
 759:mpu_9250.c    **** /** Set multi-master enabled value.
 760:mpu_9250.c    ****  * @param enabled New multi-master enabled value
 761:mpu_9250.c    ****  * @see getMultiMasterEnabled()
 762:mpu_9250.c    ****  * @see MPU9250_RA_I2C_MST_CTRL
 763:mpu_9250.c    ****  */
 764:mpu_9250.c    **** void MPU9250_setMultiMasterEnabled(bool enabled) {
 1934              		.loc 1 764 0
 1935              		.cfi_startproc
 1936              		@ args = 0, pretend = 0, frame = 0
 1937              		@ frame_needed = 0, uses_anonymous_args = 0
 1938              	.LVL101:
 1939 0000 08B5     		push	{r3, lr}
 1940              		.cfi_def_cfa_offset 8
 1941              		.cfi_offset 3, -8
 1942              		.cfi_offset 14, -4
 1943 0002 0346     		mov	r3, r0
 765:mpu_9250.c    ****     I2CWriteBit(devAddr, MPU9250_RA_I2C_MST_CTRL, MPU9250_MULT_MST_EN_BIT, enabled);
 1944              		.loc 1 765 0
 1945 0004 034A     		ldr	r2, .L209
 1946 0006 1078     		ldrb	r0, [r2]	@ zero_extendqisi2
 1947              	.LVL102:
 1948 0008 2421     		movs	r1, #36
 1949 000a 0722     		movs	r2, #7
 1950 000c FFF7FEFF 		bl	I2CWriteBit
 1951              	.LVL103:
 1952 0010 08BD     		pop	{r3, pc}
 1953              	.L210:
 1954 0012 00BF     		.align	2
 1955              	.L209:
 1956 0014 00000000 		.word	devAddr
 1957              		.cfi_endproc
 1958              	.LFE54:
 1959              		.size	MPU9250_setMultiMasterEnabled, .-MPU9250_setMultiMasterEnabled
 1960              		.section	.text.MPU9250_getWaitForExternalSensorEnabled,"ax",%progbits
 1961              		.align	2
 1962              		.global	MPU9250_getWaitForExternalSensorEnabled
 1963              		.thumb
 1964              		.thumb_func
 1965              		.type	MPU9250_getWaitForExternalSensorEnabled, %function
 1966              	MPU9250_getWaitForExternalSensorEnabled:
 1967              	.LFB55:
 766:mpu_9250.c    **** }
 767:mpu_9250.c    **** /** Get wait-for-external-sensor-data enabled value.
 768:mpu_9250.c    ****  * When the WAIT_FOR_ES bit is set to 1, the Data Ready interrupt will be
 769:mpu_9250.c    ****  * delayed until External Sensor data from the Slave Devices are loaded into the
ARM GAS  C:\Users\hima\AppData\Local\Temp\ccR4vqcc.s 			page 49


 770:mpu_9250.c    ****  * EXT_SENS_DATA registers. This is used to ensure that both the internal sensor
 771:mpu_9250.c    ****  * data (i.e. from gyro and accel) and external sensor data have been loaded to
 772:mpu_9250.c    ****  * their respective data registers (i.e. the data is synced) when the Data Ready
 773:mpu_9250.c    ****  * interrupt is triggered.
 774:mpu_9250.c    ****  *
 775:mpu_9250.c    ****  * @return Current wait-for-external-sensor-data enabled value
 776:mpu_9250.c    ****  * @see MPU9250_RA_I2C_MST_CTRL
 777:mpu_9250.c    ****  */
 778:mpu_9250.c    **** bool MPU9250_getWaitForExternalSensorEnabled() {
 1968              		.loc 1 778 0
 1969              		.cfi_startproc
 1970              		@ args = 0, pretend = 0, frame = 0
 1971              		@ frame_needed = 0, uses_anonymous_args = 0
 1972 0000 10B5     		push	{r4, lr}
 1973              		.cfi_def_cfa_offset 8
 1974              		.cfi_offset 4, -8
 1975              		.cfi_offset 14, -4
 779:mpu_9250.c    ****     I2CReadBit(devAddr, MPU9250_RA_I2C_MST_CTRL, MPU9250_WAIT_FOR_ES_BIT, buffer);
 1976              		.loc 1 779 0
 1977 0002 064C     		ldr	r4, .L213
 1978 0004 064B     		ldr	r3, .L213+4
 1979 0006 1878     		ldrb	r0, [r3]	@ zero_extendqisi2
 1980 0008 2421     		movs	r1, #36
 1981 000a 0622     		movs	r2, #6
 1982 000c 2346     		mov	r3, r4
 1983 000e FFF7FEFF 		bl	I2CReadBit
 1984              	.LVL104:
 780:mpu_9250.c    ****     return buffer[0];
 1985              		.loc 1 780 0
 1986 0012 2078     		ldrb	r0, [r4]	@ zero_extendqisi2
 781:mpu_9250.c    **** }
 1987              		.loc 1 781 0
 1988 0014 0030     		adds	r0, r0, #0
 1989 0016 18BF     		it	ne
 1990 0018 0120     		movne	r0, #1
 1991 001a 10BD     		pop	{r4, pc}
 1992              	.L214:
 1993              		.align	2
 1994              	.L213:
 1995 001c 00000000 		.word	buffer
 1996 0020 00000000 		.word	devAddr
 1997              		.cfi_endproc
 1998              	.LFE55:
 1999              		.size	MPU9250_getWaitForExternalSensorEnabled, .-MPU9250_getWaitForExternalSensorEnabled
 2000              		.section	.text.MPU9250_setWaitForExternalSensorEnabled,"ax",%progbits
 2001              		.align	2
 2002              		.global	MPU9250_setWaitForExternalSensorEnabled
 2003              		.thumb
 2004              		.thumb_func
 2005              		.type	MPU9250_setWaitForExternalSensorEnabled, %function
 2006              	MPU9250_setWaitForExternalSensorEnabled:
 2007              	.LFB56:
 782:mpu_9250.c    **** /** Set wait-for-external-sensor-data enabled value.
 783:mpu_9250.c    ****  * @param enabled New wait-for-external-sensor-data enabled value
 784:mpu_9250.c    ****  * @see getWaitForExternalSensorEnabled()
 785:mpu_9250.c    ****  * @see MPU9250_RA_I2C_MST_CTRL
 786:mpu_9250.c    ****  */
ARM GAS  C:\Users\hima\AppData\Local\Temp\ccR4vqcc.s 			page 50


 787:mpu_9250.c    **** void MPU9250_setWaitForExternalSensorEnabled(bool enabled) {
 2008              		.loc 1 787 0
 2009              		.cfi_startproc
 2010              		@ args = 0, pretend = 0, frame = 0
 2011              		@ frame_needed = 0, uses_anonymous_args = 0
 2012              	.LVL105:
 2013 0000 08B5     		push	{r3, lr}
 2014              		.cfi_def_cfa_offset 8
 2015              		.cfi_offset 3, -8
 2016              		.cfi_offset 14, -4
 2017 0002 0346     		mov	r3, r0
 788:mpu_9250.c    ****     I2CWriteBit(devAddr, MPU9250_RA_I2C_MST_CTRL, MPU9250_WAIT_FOR_ES_BIT, enabled);
 2018              		.loc 1 788 0
 2019 0004 034A     		ldr	r2, .L217
 2020 0006 1078     		ldrb	r0, [r2]	@ zero_extendqisi2
 2021              	.LVL106:
 2022 0008 2421     		movs	r1, #36
 2023 000a 0622     		movs	r2, #6
 2024 000c FFF7FEFF 		bl	I2CWriteBit
 2025              	.LVL107:
 2026 0010 08BD     		pop	{r3, pc}
 2027              	.L218:
 2028 0012 00BF     		.align	2
 2029              	.L217:
 2030 0014 00000000 		.word	devAddr
 2031              		.cfi_endproc
 2032              	.LFE56:
 2033              		.size	MPU9250_setWaitForExternalSensorEnabled, .-MPU9250_setWaitForExternalSensorEnabled
 2034              		.section	.text.MPU9250_getSlave3FIFOEnabled,"ax",%progbits
 2035              		.align	2
 2036              		.global	MPU9250_getSlave3FIFOEnabled
 2037              		.thumb
 2038              		.thumb_func
 2039              		.type	MPU9250_getSlave3FIFOEnabled, %function
 2040              	MPU9250_getSlave3FIFOEnabled:
 2041              	.LFB57:
 789:mpu_9250.c    **** }
 790:mpu_9250.c    **** /** Get Slave 3 FIFO enabled value.
 791:mpu_9250.c    ****  * When set to 1, this bit enables EXT_SENS_DATA registers (Registers 73 to 96)
 792:mpu_9250.c    ****  * associated with Slave 3 to be written into the FIFO buffer.
 793:mpu_9250.c    ****  * @return Current Slave 3 FIFO enabled value
 794:mpu_9250.c    ****  * @see MPU9250_RA_MST_CTRL
 795:mpu_9250.c    ****  */
 796:mpu_9250.c    **** bool MPU9250_getSlave3FIFOEnabled() {
 2042              		.loc 1 796 0
 2043              		.cfi_startproc
 2044              		@ args = 0, pretend = 0, frame = 0
 2045              		@ frame_needed = 0, uses_anonymous_args = 0
 2046 0000 10B5     		push	{r4, lr}
 2047              		.cfi_def_cfa_offset 8
 2048              		.cfi_offset 4, -8
 2049              		.cfi_offset 14, -4
 797:mpu_9250.c    ****     I2CReadBit(devAddr, MPU9250_RA_I2C_MST_CTRL, MPU9250_SLV_3_FIFO_EN_BIT, buffer);
 2050              		.loc 1 797 0
 2051 0002 064C     		ldr	r4, .L221
 2052 0004 064B     		ldr	r3, .L221+4
 2053 0006 1878     		ldrb	r0, [r3]	@ zero_extendqisi2
ARM GAS  C:\Users\hima\AppData\Local\Temp\ccR4vqcc.s 			page 51


 2054 0008 2421     		movs	r1, #36
 2055 000a 0522     		movs	r2, #5
 2056 000c 2346     		mov	r3, r4
 2057 000e FFF7FEFF 		bl	I2CReadBit
 2058              	.LVL108:
 798:mpu_9250.c    ****     return buffer[0];
 2059              		.loc 1 798 0
 2060 0012 2078     		ldrb	r0, [r4]	@ zero_extendqisi2
 799:mpu_9250.c    **** }
 2061              		.loc 1 799 0
 2062 0014 0030     		adds	r0, r0, #0
 2063 0016 18BF     		it	ne
 2064 0018 0120     		movne	r0, #1
 2065 001a 10BD     		pop	{r4, pc}
 2066              	.L222:
 2067              		.align	2
 2068              	.L221:
 2069 001c 00000000 		.word	buffer
 2070 0020 00000000 		.word	devAddr
 2071              		.cfi_endproc
 2072              	.LFE57:
 2073              		.size	MPU9250_getSlave3FIFOEnabled, .-MPU9250_getSlave3FIFOEnabled
 2074              		.section	.text.MPU9250_setSlave3FIFOEnabled,"ax",%progbits
 2075              		.align	2
 2076              		.global	MPU9250_setSlave3FIFOEnabled
 2077              		.thumb
 2078              		.thumb_func
 2079              		.type	MPU9250_setSlave3FIFOEnabled, %function
 2080              	MPU9250_setSlave3FIFOEnabled:
 2081              	.LFB58:
 800:mpu_9250.c    **** /** Set Slave 3 FIFO enabled value.
 801:mpu_9250.c    ****  * @param enabled New Slave 3 FIFO enabled value
 802:mpu_9250.c    ****  * @see getSlave3FIFOEnabled()
 803:mpu_9250.c    ****  * @see MPU9250_RA_MST_CTRL
 804:mpu_9250.c    ****  */
 805:mpu_9250.c    **** void MPU9250_setSlave3FIFOEnabled(bool enabled) {
 2082              		.loc 1 805 0
 2083              		.cfi_startproc
 2084              		@ args = 0, pretend = 0, frame = 0
 2085              		@ frame_needed = 0, uses_anonymous_args = 0
 2086              	.LVL109:
 2087 0000 08B5     		push	{r3, lr}
 2088              		.cfi_def_cfa_offset 8
 2089              		.cfi_offset 3, -8
 2090              		.cfi_offset 14, -4
 2091 0002 0346     		mov	r3, r0
 806:mpu_9250.c    ****     I2CWriteBit(devAddr, MPU9250_RA_I2C_MST_CTRL, MPU9250_SLV_3_FIFO_EN_BIT, enabled);
 2092              		.loc 1 806 0
 2093 0004 034A     		ldr	r2, .L225
 2094 0006 1078     		ldrb	r0, [r2]	@ zero_extendqisi2
 2095              	.LVL110:
 2096 0008 2421     		movs	r1, #36
 2097 000a 0522     		movs	r2, #5
 2098 000c FFF7FEFF 		bl	I2CWriteBit
 2099              	.LVL111:
 2100 0010 08BD     		pop	{r3, pc}
 2101              	.L226:
ARM GAS  C:\Users\hima\AppData\Local\Temp\ccR4vqcc.s 			page 52


 2102 0012 00BF     		.align	2
 2103              	.L225:
 2104 0014 00000000 		.word	devAddr
 2105              		.cfi_endproc
 2106              	.LFE58:
 2107              		.size	MPU9250_setSlave3FIFOEnabled, .-MPU9250_setSlave3FIFOEnabled
 2108              		.section	.text.MPU9250_getSlaveReadWriteTransitionEnabled,"ax",%progbits
 2109              		.align	2
 2110              		.global	MPU9250_getSlaveReadWriteTransitionEnabled
 2111              		.thumb
 2112              		.thumb_func
 2113              		.type	MPU9250_getSlaveReadWriteTransitionEnabled, %function
 2114              	MPU9250_getSlaveReadWriteTransitionEnabled:
 2115              	.LFB59:
 807:mpu_9250.c    **** }
 808:mpu_9250.c    **** /** Get slave read/write transition enabled value.
 809:mpu_9250.c    ****  * The I2C_MST_P_NSR bit configures the I2C Master's transition from one slave
 810:mpu_9250.c    ****  * read to the next slave read. If the bit equals 0, there will be a restart
 811:mpu_9250.c    ****  * between reads. If the bit equals 1, there will be a stop followed by a start
 812:mpu_9250.c    ****  * of the following read. When a write transaction follows a read transaction,
 813:mpu_9250.c    ****  * the stop followed by a start of the successive write will be always used.
 814:mpu_9250.c    ****  *
 815:mpu_9250.c    ****  * @return Current slave read/write transition enabled value
 816:mpu_9250.c    ****  * @see MPU9250_RA_I2C_MST_CTRL
 817:mpu_9250.c    ****  */
 818:mpu_9250.c    **** bool MPU9250_getSlaveReadWriteTransitionEnabled() {
 2116              		.loc 1 818 0
 2117              		.cfi_startproc
 2118              		@ args = 0, pretend = 0, frame = 0
 2119              		@ frame_needed = 0, uses_anonymous_args = 0
 2120 0000 10B5     		push	{r4, lr}
 2121              		.cfi_def_cfa_offset 8
 2122              		.cfi_offset 4, -8
 2123              		.cfi_offset 14, -4
 819:mpu_9250.c    ****     I2CReadBit(devAddr, MPU9250_RA_I2C_MST_CTRL, I2C_MPU9250_I2C_MST_P_NSR_BIT, buffer);
 2124              		.loc 1 819 0
 2125 0002 064C     		ldr	r4, .L229
 2126 0004 064B     		ldr	r3, .L229+4
 2127 0006 1878     		ldrb	r0, [r3]	@ zero_extendqisi2
 2128 0008 2421     		movs	r1, #36
 2129 000a 0422     		movs	r2, #4
 2130 000c 2346     		mov	r3, r4
 2131 000e FFF7FEFF 		bl	I2CReadBit
 2132              	.LVL112:
 820:mpu_9250.c    ****     return buffer[0];
 2133              		.loc 1 820 0
 2134 0012 2078     		ldrb	r0, [r4]	@ zero_extendqisi2
 821:mpu_9250.c    **** }
 2135              		.loc 1 821 0
 2136 0014 0030     		adds	r0, r0, #0
 2137 0016 18BF     		it	ne
 2138 0018 0120     		movne	r0, #1
 2139 001a 10BD     		pop	{r4, pc}
 2140              	.L230:
 2141              		.align	2
 2142              	.L229:
 2143 001c 00000000 		.word	buffer
ARM GAS  C:\Users\hima\AppData\Local\Temp\ccR4vqcc.s 			page 53


 2144 0020 00000000 		.word	devAddr
 2145              		.cfi_endproc
 2146              	.LFE59:
 2147              		.size	MPU9250_getSlaveReadWriteTransitionEnabled, .-MPU9250_getSlaveReadWriteTransitionEnabled
 2148              		.section	.text.MPU9250_setSlaveReadWriteTransitionEnabled,"ax",%progbits
 2149              		.align	2
 2150              		.global	MPU9250_setSlaveReadWriteTransitionEnabled
 2151              		.thumb
 2152              		.thumb_func
 2153              		.type	MPU9250_setSlaveReadWriteTransitionEnabled, %function
 2154              	MPU9250_setSlaveReadWriteTransitionEnabled:
 2155              	.LFB60:
 822:mpu_9250.c    **** /** Set slave read/write transition enabled value.
 823:mpu_9250.c    ****  * @param enabled New slave read/write transition enabled value
 824:mpu_9250.c    ****  * @see getSlaveReadWriteTransitionEnabled()
 825:mpu_9250.c    ****  * @see MPU9250_RA_I2C_MST_CTRL
 826:mpu_9250.c    ****  */
 827:mpu_9250.c    **** void MPU9250_setSlaveReadWriteTransitionEnabled(bool enabled) {
 2156              		.loc 1 827 0
 2157              		.cfi_startproc
 2158              		@ args = 0, pretend = 0, frame = 0
 2159              		@ frame_needed = 0, uses_anonymous_args = 0
 2160              	.LVL113:
 2161 0000 08B5     		push	{r3, lr}
 2162              		.cfi_def_cfa_offset 8
 2163              		.cfi_offset 3, -8
 2164              		.cfi_offset 14, -4
 2165 0002 0346     		mov	r3, r0
 828:mpu_9250.c    ****     I2CWriteBit(devAddr, MPU9250_RA_I2C_MST_CTRL, I2C_MPU9250_I2C_MST_P_NSR_BIT, enabled);
 2166              		.loc 1 828 0
 2167 0004 034A     		ldr	r2, .L233
 2168 0006 1078     		ldrb	r0, [r2]	@ zero_extendqisi2
 2169              	.LVL114:
 2170 0008 2421     		movs	r1, #36
 2171 000a 0422     		movs	r2, #4
 2172 000c FFF7FEFF 		bl	I2CWriteBit
 2173              	.LVL115:
 2174 0010 08BD     		pop	{r3, pc}
 2175              	.L234:
 2176 0012 00BF     		.align	2
 2177              	.L233:
 2178 0014 00000000 		.word	devAddr
 2179              		.cfi_endproc
 2180              	.LFE60:
 2181              		.size	MPU9250_setSlaveReadWriteTransitionEnabled, .-MPU9250_setSlaveReadWriteTransitionEnabled
 2182              		.section	.text.MPU9250_getMasterClockSpeed,"ax",%progbits
 2183              		.align	2
 2184              		.global	MPU9250_getMasterClockSpeed
 2185              		.thumb
 2186              		.thumb_func
 2187              		.type	MPU9250_getMasterClockSpeed, %function
 2188              	MPU9250_getMasterClockSpeed:
 2189              	.LFB61:
 829:mpu_9250.c    **** }
 830:mpu_9250.c    **** /** Get I2C master clock speed.
 831:mpu_9250.c    ****  * I2C_MST_CLK is a 4 bit unsigned value which configures a divider on the
 832:mpu_9250.c    ****  * MPU-60X0 internal 8MHz clock. It sets the I2C master clock speed according to
ARM GAS  C:\Users\hima\AppData\Local\Temp\ccR4vqcc.s 			page 54


 833:mpu_9250.c    ****  * the following table:
 834:mpu_9250.c    ****  *
 835:mpu_9250.c    ****  * <pre>
 836:mpu_9250.c    ****  * I2C_MST_CLK | I2C Master Clock Speed | 8MHz Clock Divider
 837:mpu_9250.c    ****  * ------------+------------------------+-------------------
 838:mpu_9250.c    ****  * 0           | 348kHz                 | 23
 839:mpu_9250.c    ****  * 1           | 333kHz                 | 24
 840:mpu_9250.c    ****  * 2           | 320kHz                 | 25
 841:mpu_9250.c    ****  * 3           | 308kHz                 | 26
 842:mpu_9250.c    ****  * 4           | 296kHz                 | 27
 843:mpu_9250.c    ****  * 5           | 286kHz                 | 28
 844:mpu_9250.c    ****  * 6           | 276kHz                 | 29
 845:mpu_9250.c    ****  * 7           | 267kHz                 | 30
 846:mpu_9250.c    ****  * 8           | 258kHz                 | 31
 847:mpu_9250.c    ****  * 9           | 500kHz                 | 16
 848:mpu_9250.c    ****  * 10          | 471kHz                 | 17
 849:mpu_9250.c    ****  * 11          | 444kHz                 | 18
 850:mpu_9250.c    ****  * 12          | 421kHz                 | 19
 851:mpu_9250.c    ****  * 13          | 400kHz                 | 20
 852:mpu_9250.c    ****  * 14          | 381kHz                 | 21
 853:mpu_9250.c    ****  * 15          | 364kHz                 | 22
 854:mpu_9250.c    ****  * </pre>
 855:mpu_9250.c    ****  *
 856:mpu_9250.c    ****  * @return Current I2C master clock speed
 857:mpu_9250.c    ****  * @see MPU9250_RA_I2C_MST_CTRL
 858:mpu_9250.c    ****  */
 859:mpu_9250.c    **** uint8_t MPU9250_getMasterClockSpeed() {
 2190              		.loc 1 859 0
 2191              		.cfi_startproc
 2192              		@ args = 0, pretend = 0, frame = 0
 2193              		@ frame_needed = 0, uses_anonymous_args = 0
 2194 0000 10B5     		push	{r4, lr}
 2195              		.cfi_def_cfa_offset 8
 2196              		.cfi_offset 4, -8
 2197              		.cfi_offset 14, -4
 2198 0002 82B0     		sub	sp, sp, #8
 2199              		.cfi_def_cfa_offset 16
 860:mpu_9250.c    ****     I2CReadBits(devAddr, MPU9250_RA_I2C_MST_CTRL, I2C_MPU9250_I2C_MST_CLK_BIT, I2C_MPU9250_I2C_MST_
 2200              		.loc 1 860 0
 2201 0004 054B     		ldr	r3, .L237
 2202 0006 1878     		ldrb	r0, [r3]	@ zero_extendqisi2
 2203 0008 054C     		ldr	r4, .L237+4
 2204 000a 0094     		str	r4, [sp]
 2205 000c 2421     		movs	r1, #36
 2206 000e 0322     		movs	r2, #3
 2207 0010 0423     		movs	r3, #4
 2208 0012 FFF7FEFF 		bl	I2CReadBits
 2209              	.LVL116:
 861:mpu_9250.c    ****     return buffer[0];
 862:mpu_9250.c    **** }
 2210              		.loc 1 862 0
 2211 0016 2078     		ldrb	r0, [r4]	@ zero_extendqisi2
 2212 0018 02B0     		add	sp, sp, #8
 2213              		.cfi_def_cfa_offset 8
 2214              		@ sp needed
 2215 001a 10BD     		pop	{r4, pc}
 2216              	.L238:
ARM GAS  C:\Users\hima\AppData\Local\Temp\ccR4vqcc.s 			page 55


 2217              		.align	2
 2218              	.L237:
 2219 001c 00000000 		.word	devAddr
 2220 0020 00000000 		.word	buffer
 2221              		.cfi_endproc
 2222              	.LFE61:
 2223              		.size	MPU9250_getMasterClockSpeed, .-MPU9250_getMasterClockSpeed
 2224              		.section	.text.MPU9250_setMasterClockSpeed,"ax",%progbits
 2225              		.align	2
 2226              		.global	MPU9250_setMasterClockSpeed
 2227              		.thumb
 2228              		.thumb_func
 2229              		.type	MPU9250_setMasterClockSpeed, %function
 2230              	MPU9250_setMasterClockSpeed:
 2231              	.LFB62:
 863:mpu_9250.c    **** /** Set I2C master clock speed.
 864:mpu_9250.c    ****  * @reparam speed Current I2C master clock speed
 865:mpu_9250.c    ****  * @see MPU9250_RA_I2C_MST_CTRL
 866:mpu_9250.c    ****  */
 867:mpu_9250.c    **** void MPU9250_setMasterClockSpeed(uint8_t speed) {
 2232              		.loc 1 867 0
 2233              		.cfi_startproc
 2234              		@ args = 0, pretend = 0, frame = 0
 2235              		@ frame_needed = 0, uses_anonymous_args = 0
 2236              	.LVL117:
 2237 0000 00B5     		push	{lr}
 2238              		.cfi_def_cfa_offset 4
 2239              		.cfi_offset 14, -4
 2240 0002 83B0     		sub	sp, sp, #12
 2241              		.cfi_def_cfa_offset 16
 868:mpu_9250.c    ****     I2CWriteBits(devAddr, MPU9250_RA_I2C_MST_CTRL, I2C_MPU9250_I2C_MST_CLK_BIT, I2C_MPU9250_I2C_MST
 2242              		.loc 1 868 0
 2243 0004 054B     		ldr	r3, .L241
 2244 0006 1B78     		ldrb	r3, [r3]	@ zero_extendqisi2
 2245 0008 0090     		str	r0, [sp]
 2246 000a 1846     		mov	r0, r3
 2247              	.LVL118:
 2248 000c 2421     		movs	r1, #36
 2249 000e 0322     		movs	r2, #3
 2250 0010 0423     		movs	r3, #4
 2251 0012 FFF7FEFF 		bl	I2CWriteBits
 2252              	.LVL119:
 869:mpu_9250.c    **** }
 2253              		.loc 1 869 0
 2254 0016 03B0     		add	sp, sp, #12
 2255              		.cfi_def_cfa_offset 4
 2256              		@ sp needed
 2257 0018 5DF804FB 		ldr	pc, [sp], #4
 2258              	.L242:
 2259              		.align	2
 2260              	.L241:
 2261 001c 00000000 		.word	devAddr
 2262              		.cfi_endproc
 2263              	.LFE62:
 2264              		.size	MPU9250_setMasterClockSpeed, .-MPU9250_setMasterClockSpeed
 2265              		.section	.text.MPU9250_getSlaveAddress,"ax",%progbits
 2266              		.align	2
ARM GAS  C:\Users\hima\AppData\Local\Temp\ccR4vqcc.s 			page 56


 2267              		.global	MPU9250_getSlaveAddress
 2268              		.thumb
 2269              		.thumb_func
 2270              		.type	MPU9250_getSlaveAddress, %function
 2271              	MPU9250_getSlaveAddress:
 2272              	.LFB63:
 870:mpu_9250.c    **** 
 871:mpu_9250.c    **** // I2C_SLV* registers (Slave 0-3)
 872:mpu_9250.c    **** 
 873:mpu_9250.c    **** /** Get the I2C address of the specified slave (0-3).
 874:mpu_9250.c    ****  * Note that Bit 7 (MSB) controls read/write mode. If Bit 7 is set, it's a read
 875:mpu_9250.c    ****  * operation, and if it is cleared, then it's a write operation. The remaining
 876:mpu_9250.c    ****  * bits (6-0) are the 7-bit device address of the slave device.
 877:mpu_9250.c    ****  *
 878:mpu_9250.c    ****  * In read mode, the result of the read is placed in the lowest available 
 879:mpu_9250.c    ****  * EXT_SENS_DATA register. For further information regarding the allocation of
 880:mpu_9250.c    ****  * read results, please refer to the EXT_SENS_DATA register description
 881:mpu_9250.c    ****  * (Registers 73 - 96).
 882:mpu_9250.c    ****  *
 883:mpu_9250.c    ****  * The MPU-9250 supports a total of five slaves, but Slave 4 has unique
 884:mpu_9250.c    ****  * characteristics, and so it has its own functions (getSlave4* and setSlave4*).
 885:mpu_9250.c    ****  *
 886:mpu_9250.c    ****  * I2C data transactions are performed at the Sample Rate, as defined in
 887:mpu_9250.c    ****  * Register 25. The user is responsible for ensuring that I2C data transactions
 888:mpu_9250.c    ****  * to and from each enabled Slave can be completed within a single period of the
 889:mpu_9250.c    ****  * Sample Rate.
 890:mpu_9250.c    ****  *
 891:mpu_9250.c    ****  * The I2C slave access rate can be reduced relative to the Sample Rate. This
 892:mpu_9250.c    ****  * reduced access rate is determined by I2C_MST_DLY (Register 52). Whether a
 893:mpu_9250.c    ****  * slave's access rate is reduced relative to the Sample Rate is determined by
 894:mpu_9250.c    ****  * I2C_MST_DELAY_CTRL (Register 103).
 895:mpu_9250.c    ****  *
 896:mpu_9250.c    ****  * The processing order for the slaves is fixed. The sequence followed for
 897:mpu_9250.c    ****  * processing the slaves is Slave 0, Slave 1, Slave 2, Slave 3 and Slave 4. If a
 898:mpu_9250.c    ****  * particular Slave is disabled it will be skipped.
 899:mpu_9250.c    ****  *
 900:mpu_9250.c    ****  * Each slave can either be accessed at the sample rate or at a reduced sample
 901:mpu_9250.c    ****  * rate. In a case where some slaves are accessed at the Sample Rate and some
 902:mpu_9250.c    ****  * slaves are accessed at the reduced rate, the sequence of accessing the slaves
 903:mpu_9250.c    ****  * (Slave 0 to Slave 4) is still followed. However, the reduced rate slaves will
 904:mpu_9250.c    ****  * be skipped if their access rate dictates that they should not be accessed
 905:mpu_9250.c    ****  * during that particular cycle. For further information regarding the reduced
 906:mpu_9250.c    ****  * access rate, please refer to Register 52. Whether a slave is accessed at the
 907:mpu_9250.c    ****  * Sample Rate or at the reduced rate is determined by the Delay Enable bits in
 908:mpu_9250.c    ****  * Register 103.
 909:mpu_9250.c    ****  *
 910:mpu_9250.c    ****  * @param num Slave number (0-3)
 911:mpu_9250.c    ****  * @return Current address for specified slave
 912:mpu_9250.c    ****  * @see MPU9250_RA_I2C_SLV0_ADDR
 913:mpu_9250.c    ****  */
 914:mpu_9250.c    **** uint8_t MPU9250_getSlaveAddress(uint8_t num) {
 2273              		.loc 1 914 0
 2274              		.cfi_startproc
 2275              		@ args = 0, pretend = 0, frame = 0
 2276              		@ frame_needed = 0, uses_anonymous_args = 0
 2277              	.LVL120:
 915:mpu_9250.c    ****     if (num > 3) return 0;
ARM GAS  C:\Users\hima\AppData\Local\Temp\ccR4vqcc.s 			page 57


 2278              		.loc 1 915 0
 2279 0000 0328     		cmp	r0, #3
 2280 0002 0DD8     		bhi	.L245
 914:mpu_9250.c    ****     if (num > 3) return 0;
 2281              		.loc 1 914 0
 2282 0004 10B5     		push	{r4, lr}
 2283              		.cfi_def_cfa_offset 8
 2284              		.cfi_offset 4, -8
 2285              		.cfi_offset 14, -4
 916:mpu_9250.c    ****     I2CReadByte(devAddr, MPU9250_RA_I2C_SLV0_ADDR + num*3, buffer);
 2286              		.loc 1 916 0
 2287 0006 00EB4000 		add	r0, r0, r0, lsl #1
 2288              	.LVL121:
 2289 000a 00F12501 		add	r1, r0, #37
 2290 000e 054C     		ldr	r4, .L248
 2291 0010 054B     		ldr	r3, .L248+4
 2292 0012 1878     		ldrb	r0, [r3]	@ zero_extendqisi2
 2293 0014 C9B2     		uxtb	r1, r1
 2294 0016 2246     		mov	r2, r4
 2295 0018 FFF7FEFF 		bl	I2CReadByte
 2296              	.LVL122:
 917:mpu_9250.c    ****     return buffer[0];
 2297              		.loc 1 917 0
 2298 001c 2078     		ldrb	r0, [r4]	@ zero_extendqisi2
 2299 001e 10BD     		pop	{r4, pc}
 2300              	.LVL123:
 2301              	.L245:
 2302              		.cfi_def_cfa_offset 0
 2303              		.cfi_restore 4
 2304              		.cfi_restore 14
 915:mpu_9250.c    ****     I2CReadByte(devAddr, MPU9250_RA_I2C_SLV0_ADDR + num*3, buffer);
 2305              		.loc 1 915 0
 2306 0020 0020     		movs	r0, #0
 2307              	.LVL124:
 2308 0022 7047     		bx	lr
 2309              	.L249:
 2310              		.align	2
 2311              	.L248:
 2312 0024 00000000 		.word	buffer
 2313 0028 00000000 		.word	devAddr
 2314              		.cfi_endproc
 2315              	.LFE63:
 2316              		.size	MPU9250_getSlaveAddress, .-MPU9250_getSlaveAddress
 2317              		.section	.text.MPU9250_setSlaveAddress,"ax",%progbits
 2318              		.align	2
 2319              		.global	MPU9250_setSlaveAddress
 2320              		.thumb
 2321              		.thumb_func
 2322              		.type	MPU9250_setSlaveAddress, %function
 2323              	MPU9250_setSlaveAddress:
 2324              	.LFB64:
 918:mpu_9250.c    **** }
 919:mpu_9250.c    **** /** Set the I2C address of the specified slave (0-3).
 920:mpu_9250.c    ****  * @param num Slave number (0-3)
 921:mpu_9250.c    ****  * @param address New address for specified slave
 922:mpu_9250.c    ****  * @see getSlaveAddress()
 923:mpu_9250.c    ****  * @see MPU9250_RA_I2C_SLV0_ADDR
ARM GAS  C:\Users\hima\AppData\Local\Temp\ccR4vqcc.s 			page 58


 924:mpu_9250.c    ****  */
 925:mpu_9250.c    **** void MPU9250_setSlaveAddress(uint8_t num, uint8_t address) {
 2325              		.loc 1 925 0
 2326              		.cfi_startproc
 2327              		@ args = 0, pretend = 0, frame = 0
 2328              		@ frame_needed = 0, uses_anonymous_args = 0
 2329              	.LVL125:
 926:mpu_9250.c    ****     if (num > 3) return;
 2330              		.loc 1 926 0
 2331 0000 0328     		cmp	r0, #3
 2332 0002 0BD8     		bhi	.L253
 925:mpu_9250.c    ****     if (num > 3) return;
 2333              		.loc 1 925 0
 2334 0004 08B5     		push	{r3, lr}
 2335              		.cfi_def_cfa_offset 8
 2336              		.cfi_offset 3, -8
 2337              		.cfi_offset 14, -4
 2338 0006 0A46     		mov	r2, r1
 927:mpu_9250.c    ****     I2CWriteByte(devAddr, MPU9250_RA_I2C_SLV0_ADDR + num*3, address);
 2339              		.loc 1 927 0
 2340 0008 00EB4000 		add	r0, r0, r0, lsl #1
 2341              	.LVL126:
 2342 000c 00F12503 		add	r3, r0, #37
 2343 0010 0349     		ldr	r1, .L254
 2344              	.LVL127:
 2345 0012 0878     		ldrb	r0, [r1]	@ zero_extendqisi2
 2346 0014 D9B2     		uxtb	r1, r3
 2347 0016 FFF7FEFF 		bl	I2CWriteByte
 2348              	.LVL128:
 2349 001a 08BD     		pop	{r3, pc}
 2350              	.LVL129:
 2351              	.L253:
 2352              		.cfi_def_cfa_offset 0
 2353              		.cfi_restore 3
 2354              		.cfi_restore 14
 2355 001c 7047     		bx	lr
 2356              	.L255:
 2357 001e 00BF     		.align	2
 2358              	.L254:
 2359 0020 00000000 		.word	devAddr
 2360              		.cfi_endproc
 2361              	.LFE64:
 2362              		.size	MPU9250_setSlaveAddress, .-MPU9250_setSlaveAddress
 2363              		.section	.text.MPU9250_getSlaveRegister,"ax",%progbits
 2364              		.align	2
 2365              		.global	MPU9250_getSlaveRegister
 2366              		.thumb
 2367              		.thumb_func
 2368              		.type	MPU9250_getSlaveRegister, %function
 2369              	MPU9250_getSlaveRegister:
 2370              	.LFB65:
 928:mpu_9250.c    **** }
 929:mpu_9250.c    **** /** Get the active internal register for the specified slave (0-3).
 930:mpu_9250.c    ****  * Read/write operations for this slave will be done to whatever internal
 931:mpu_9250.c    ****  * register address is stored in this MPU register.
 932:mpu_9250.c    ****  *
 933:mpu_9250.c    ****  * The MPU-9250 supports a total of five slaves, but Slave 4 has unique
ARM GAS  C:\Users\hima\AppData\Local\Temp\ccR4vqcc.s 			page 59


 934:mpu_9250.c    ****  * characteristics, and so it has its own functions.
 935:mpu_9250.c    ****  *
 936:mpu_9250.c    ****  * @param num Slave number (0-3)
 937:mpu_9250.c    ****  * @return Current active register for specified slave
 938:mpu_9250.c    ****  * @see MPU9250_RA_I2C_SLV0_REG
 939:mpu_9250.c    ****  */
 940:mpu_9250.c    **** uint8_t MPU9250_getSlaveRegister(uint8_t num) {
 2371              		.loc 1 940 0
 2372              		.cfi_startproc
 2373              		@ args = 0, pretend = 0, frame = 0
 2374              		@ frame_needed = 0, uses_anonymous_args = 0
 2375              	.LVL130:
 941:mpu_9250.c    ****     if (num > 3) return 0;
 2376              		.loc 1 941 0
 2377 0000 0328     		cmp	r0, #3
 2378 0002 0DD8     		bhi	.L258
 940:mpu_9250.c    ****     if (num > 3) return 0;
 2379              		.loc 1 940 0
 2380 0004 10B5     		push	{r4, lr}
 2381              		.cfi_def_cfa_offset 8
 2382              		.cfi_offset 4, -8
 2383              		.cfi_offset 14, -4
 942:mpu_9250.c    ****     I2CReadByte(devAddr, MPU9250_RA_I2C_SLV0_REG + num*3, buffer);
 2384              		.loc 1 942 0
 2385 0006 00EB4000 		add	r0, r0, r0, lsl #1
 2386              	.LVL131:
 2387 000a 00F12601 		add	r1, r0, #38
 2388 000e 054C     		ldr	r4, .L261
 2389 0010 054B     		ldr	r3, .L261+4
 2390 0012 1878     		ldrb	r0, [r3]	@ zero_extendqisi2
 2391 0014 C9B2     		uxtb	r1, r1
 2392 0016 2246     		mov	r2, r4
 2393 0018 FFF7FEFF 		bl	I2CReadByte
 2394              	.LVL132:
 943:mpu_9250.c    ****     return buffer[0];
 2395              		.loc 1 943 0
 2396 001c 2078     		ldrb	r0, [r4]	@ zero_extendqisi2
 2397 001e 10BD     		pop	{r4, pc}
 2398              	.LVL133:
 2399              	.L258:
 2400              		.cfi_def_cfa_offset 0
 2401              		.cfi_restore 4
 2402              		.cfi_restore 14
 941:mpu_9250.c    ****     I2CReadByte(devAddr, MPU9250_RA_I2C_SLV0_REG + num*3, buffer);
 2403              		.loc 1 941 0
 2404 0020 0020     		movs	r0, #0
 2405              	.LVL134:
 2406 0022 7047     		bx	lr
 2407              	.L262:
 2408              		.align	2
 2409              	.L261:
 2410 0024 00000000 		.word	buffer
 2411 0028 00000000 		.word	devAddr
 2412              		.cfi_endproc
 2413              	.LFE65:
 2414              		.size	MPU9250_getSlaveRegister, .-MPU9250_getSlaveRegister
 2415              		.section	.text.MPU9250_setSlaveRegister,"ax",%progbits
ARM GAS  C:\Users\hima\AppData\Local\Temp\ccR4vqcc.s 			page 60


 2416              		.align	2
 2417              		.global	MPU9250_setSlaveRegister
 2418              		.thumb
 2419              		.thumb_func
 2420              		.type	MPU9250_setSlaveRegister, %function
 2421              	MPU9250_setSlaveRegister:
 2422              	.LFB66:
 944:mpu_9250.c    **** }
 945:mpu_9250.c    **** /** Set the active internal register for the specified slave (0-3).
 946:mpu_9250.c    ****  * @param num Slave number (0-3)
 947:mpu_9250.c    ****  * @param reg New active register for specified slave
 948:mpu_9250.c    ****  * @see getSlaveRegister()
 949:mpu_9250.c    ****  * @see MPU9250_RA_I2C_SLV0_REG
 950:mpu_9250.c    ****  */
 951:mpu_9250.c    **** void MPU9250_setSlaveRegister(uint8_t num, uint8_t reg) {
 2423              		.loc 1 951 0
 2424              		.cfi_startproc
 2425              		@ args = 0, pretend = 0, frame = 0
 2426              		@ frame_needed = 0, uses_anonymous_args = 0
 2427              	.LVL135:
 952:mpu_9250.c    ****     if (num > 3) return;
 2428              		.loc 1 952 0
 2429 0000 0328     		cmp	r0, #3
 2430 0002 0BD8     		bhi	.L266
 951:mpu_9250.c    ****     if (num > 3) return;
 2431              		.loc 1 951 0
 2432 0004 08B5     		push	{r3, lr}
 2433              		.cfi_def_cfa_offset 8
 2434              		.cfi_offset 3, -8
 2435              		.cfi_offset 14, -4
 2436 0006 0A46     		mov	r2, r1
 953:mpu_9250.c    ****     I2CWriteByte(devAddr, MPU9250_RA_I2C_SLV0_REG + num*3, reg);
 2437              		.loc 1 953 0
 2438 0008 00EB4000 		add	r0, r0, r0, lsl #1
 2439              	.LVL136:
 2440 000c 00F12603 		add	r3, r0, #38
 2441 0010 0349     		ldr	r1, .L267
 2442              	.LVL137:
 2443 0012 0878     		ldrb	r0, [r1]	@ zero_extendqisi2
 2444 0014 D9B2     		uxtb	r1, r3
 2445 0016 FFF7FEFF 		bl	I2CWriteByte
 2446              	.LVL138:
 2447 001a 08BD     		pop	{r3, pc}
 2448              	.LVL139:
 2449              	.L266:
 2450              		.cfi_def_cfa_offset 0
 2451              		.cfi_restore 3
 2452              		.cfi_restore 14
 2453 001c 7047     		bx	lr
 2454              	.L268:
 2455 001e 00BF     		.align	2
 2456              	.L267:
 2457 0020 00000000 		.word	devAddr
 2458              		.cfi_endproc
 2459              	.LFE66:
 2460              		.size	MPU9250_setSlaveRegister, .-MPU9250_setSlaveRegister
 2461              		.section	.text.MPU9250_getSlaveEnabled,"ax",%progbits
ARM GAS  C:\Users\hima\AppData\Local\Temp\ccR4vqcc.s 			page 61


 2462              		.align	2
 2463              		.global	MPU9250_getSlaveEnabled
 2464              		.thumb
 2465              		.thumb_func
 2466              		.type	MPU9250_getSlaveEnabled, %function
 2467              	MPU9250_getSlaveEnabled:
 2468              	.LFB67:
 954:mpu_9250.c    **** }
 955:mpu_9250.c    **** /** Get the enabled value for the specified slave (0-3).
 956:mpu_9250.c    ****  * When set to 1, this bit enables Slave 0 for data transfer operations. When
 957:mpu_9250.c    ****  * cleared to 0, this bit disables Slave 0 from data transfer operations.
 958:mpu_9250.c    ****  * @param num Slave number (0-3)
 959:mpu_9250.c    ****  * @return Current enabled value for specified slave
 960:mpu_9250.c    ****  * @see MPU9250_RA_I2C_SLV0_CTRL
 961:mpu_9250.c    ****  */
 962:mpu_9250.c    **** bool MPU9250_getSlaveEnabled(uint8_t num) {
 2469              		.loc 1 962 0
 2470              		.cfi_startproc
 2471              		@ args = 0, pretend = 0, frame = 0
 2472              		@ frame_needed = 0, uses_anonymous_args = 0
 2473              	.LVL140:
 963:mpu_9250.c    ****     if (num > 3) return 0;
 2474              		.loc 1 963 0
 2475 0000 0328     		cmp	r0, #3
 2476 0002 11D8     		bhi	.L271
 962:mpu_9250.c    ****     if (num > 3) return 0;
 2477              		.loc 1 962 0
 2478 0004 10B5     		push	{r4, lr}
 2479              		.cfi_def_cfa_offset 8
 2480              		.cfi_offset 4, -8
 2481              		.cfi_offset 14, -4
 964:mpu_9250.c    ****     I2CReadBit(devAddr, MPU9250_RA_I2C_SLV0_CTRL + num*3, I2C_MPU9250_I2C_SLV_EN_BIT, buffer);
 2482              		.loc 1 964 0
 2483 0006 00EB4000 		add	r0, r0, r0, lsl #1
 2484              	.LVL141:
 2485 000a 00F12701 		add	r1, r0, #39
 2486 000e 074C     		ldr	r4, .L274
 2487 0010 074B     		ldr	r3, .L274+4
 2488 0012 1878     		ldrb	r0, [r3]	@ zero_extendqisi2
 2489 0014 C9B2     		uxtb	r1, r1
 2490 0016 0722     		movs	r2, #7
 2491 0018 2346     		mov	r3, r4
 2492 001a FFF7FEFF 		bl	I2CReadBit
 2493              	.LVL142:
 965:mpu_9250.c    ****     return buffer[0];
 2494              		.loc 1 965 0
 2495 001e 2078     		ldrb	r0, [r4]	@ zero_extendqisi2
 2496 0020 0030     		adds	r0, r0, #0
 2497 0022 18BF     		it	ne
 2498 0024 0120     		movne	r0, #1
 2499 0026 10BD     		pop	{r4, pc}
 2500              	.LVL143:
 2501              	.L271:
 2502              		.cfi_def_cfa_offset 0
 2503              		.cfi_restore 4
 2504              		.cfi_restore 14
 963:mpu_9250.c    ****     I2CReadBit(devAddr, MPU9250_RA_I2C_SLV0_CTRL + num*3, I2C_MPU9250_I2C_SLV_EN_BIT, buffer);
ARM GAS  C:\Users\hima\AppData\Local\Temp\ccR4vqcc.s 			page 62


 2505              		.loc 1 963 0
 2506 0028 0020     		movs	r0, #0
 2507              	.LVL144:
 2508 002a 7047     		bx	lr
 2509              	.L275:
 2510              		.align	2
 2511              	.L274:
 2512 002c 00000000 		.word	buffer
 2513 0030 00000000 		.word	devAddr
 2514              		.cfi_endproc
 2515              	.LFE67:
 2516              		.size	MPU9250_getSlaveEnabled, .-MPU9250_getSlaveEnabled
 2517              		.section	.text.MPU9250_setSlaveEnabled,"ax",%progbits
 2518              		.align	2
 2519              		.global	MPU9250_setSlaveEnabled
 2520              		.thumb
 2521              		.thumb_func
 2522              		.type	MPU9250_setSlaveEnabled, %function
 2523              	MPU9250_setSlaveEnabled:
 2524              	.LFB68:
 966:mpu_9250.c    **** }
 967:mpu_9250.c    **** /** Set the enabled value for the specified slave (0-3).
 968:mpu_9250.c    ****  * @param num Slave number (0-3)
 969:mpu_9250.c    ****  * @param enabled New enabled value for specified slave
 970:mpu_9250.c    ****  * @see getSlaveEnabled()
 971:mpu_9250.c    ****  * @see MPU9250_RA_I2C_SLV0_CTRL
 972:mpu_9250.c    ****  */
 973:mpu_9250.c    **** void MPU9250_setSlaveEnabled(uint8_t num, bool enabled) {
 2525              		.loc 1 973 0
 2526              		.cfi_startproc
 2527              		@ args = 0, pretend = 0, frame = 0
 2528              		@ frame_needed = 0, uses_anonymous_args = 0
 2529              	.LVL145:
 974:mpu_9250.c    ****     if (num > 3) return;
 2530              		.loc 1 974 0
 2531 0000 0328     		cmp	r0, #3
 2532 0002 0CD8     		bhi	.L279
 973:mpu_9250.c    ****     if (num > 3) return;
 2533              		.loc 1 973 0
 2534 0004 08B5     		push	{r3, lr}
 2535              		.cfi_def_cfa_offset 8
 2536              		.cfi_offset 3, -8
 2537              		.cfi_offset 14, -4
 2538 0006 0B46     		mov	r3, r1
 975:mpu_9250.c    ****     I2CWriteBit(devAddr, MPU9250_RA_I2C_SLV0_CTRL + num*3, I2C_MPU9250_I2C_SLV_EN_BIT, enabled);
 2539              		.loc 1 975 0
 2540 0008 00EB4000 		add	r0, r0, r0, lsl #1
 2541              	.LVL146:
 2542 000c 00F12702 		add	r2, r0, #39
 2543 0010 0349     		ldr	r1, .L280
 2544              	.LVL147:
 2545 0012 0878     		ldrb	r0, [r1]	@ zero_extendqisi2
 2546 0014 D1B2     		uxtb	r1, r2
 2547 0016 0722     		movs	r2, #7
 2548 0018 FFF7FEFF 		bl	I2CWriteBit
 2549              	.LVL148:
 2550 001c 08BD     		pop	{r3, pc}
ARM GAS  C:\Users\hima\AppData\Local\Temp\ccR4vqcc.s 			page 63


 2551              	.LVL149:
 2552              	.L279:
 2553              		.cfi_def_cfa_offset 0
 2554              		.cfi_restore 3
 2555              		.cfi_restore 14
 2556 001e 7047     		bx	lr
 2557              	.L281:
 2558              		.align	2
 2559              	.L280:
 2560 0020 00000000 		.word	devAddr
 2561              		.cfi_endproc
 2562              	.LFE68:
 2563              		.size	MPU9250_setSlaveEnabled, .-MPU9250_setSlaveEnabled
 2564              		.section	.text.MPU9250_getSlaveWordByteSwap,"ax",%progbits
 2565              		.align	2
 2566              		.global	MPU9250_getSlaveWordByteSwap
 2567              		.thumb
 2568              		.thumb_func
 2569              		.type	MPU9250_getSlaveWordByteSwap, %function
 2570              	MPU9250_getSlaveWordByteSwap:
 2571              	.LFB69:
 976:mpu_9250.c    **** }
 977:mpu_9250.c    **** /** Get word pair byte-swapping enabled for the specified slave (0-3).
 978:mpu_9250.c    ****  * When set to 1, this bit enables byte swapping. When byte swapping is enabled,
 979:mpu_9250.c    ****  * the high and low bytes of a word pair are swapped. Please refer to
 980:mpu_9250.c    ****  * I2C_SLV0_GRP for the pairing convention of the word pairs. When cleared to 0,
 981:mpu_9250.c    ****  * bytes transferred to and from Slave 0 will be written to EXT_SENS_DATA
 982:mpu_9250.c    ****  * registers in the order they were transferred.
 983:mpu_9250.c    ****  *
 984:mpu_9250.c    ****  * @param num Slave number (0-3)
 985:mpu_9250.c    ****  * @return Current word pair byte-swapping enabled value for specified slave
 986:mpu_9250.c    ****  * @see MPU9250_RA_I2C_SLV0_CTRL
 987:mpu_9250.c    ****  */
 988:mpu_9250.c    **** bool MPU9250_getSlaveWordByteSwap(uint8_t num) {
 2572              		.loc 1 988 0
 2573              		.cfi_startproc
 2574              		@ args = 0, pretend = 0, frame = 0
 2575              		@ frame_needed = 0, uses_anonymous_args = 0
 2576              	.LVL150:
 989:mpu_9250.c    ****     if (num > 3) return 0;
 2577              		.loc 1 989 0
 2578 0000 0328     		cmp	r0, #3
 2579 0002 11D8     		bhi	.L284
 988:mpu_9250.c    ****     if (num > 3) return 0;
 2580              		.loc 1 988 0
 2581 0004 10B5     		push	{r4, lr}
 2582              		.cfi_def_cfa_offset 8
 2583              		.cfi_offset 4, -8
 2584              		.cfi_offset 14, -4
 990:mpu_9250.c    ****     I2CReadBit(devAddr, MPU9250_RA_I2C_SLV0_CTRL + num*3, I2C_MPU9250_I2C_SLV_BYTE_SW_BIT, buffer);
 2585              		.loc 1 990 0
 2586 0006 00EB4000 		add	r0, r0, r0, lsl #1
 2587              	.LVL151:
 2588 000a 00F12701 		add	r1, r0, #39
 2589 000e 074C     		ldr	r4, .L287
 2590 0010 074B     		ldr	r3, .L287+4
 2591 0012 1878     		ldrb	r0, [r3]	@ zero_extendqisi2
ARM GAS  C:\Users\hima\AppData\Local\Temp\ccR4vqcc.s 			page 64


 2592 0014 C9B2     		uxtb	r1, r1
 2593 0016 0622     		movs	r2, #6
 2594 0018 2346     		mov	r3, r4
 2595 001a FFF7FEFF 		bl	I2CReadBit
 2596              	.LVL152:
 991:mpu_9250.c    ****     return buffer[0];
 2597              		.loc 1 991 0
 2598 001e 2078     		ldrb	r0, [r4]	@ zero_extendqisi2
 2599 0020 0030     		adds	r0, r0, #0
 2600 0022 18BF     		it	ne
 2601 0024 0120     		movne	r0, #1
 2602 0026 10BD     		pop	{r4, pc}
 2603              	.LVL153:
 2604              	.L284:
 2605              		.cfi_def_cfa_offset 0
 2606              		.cfi_restore 4
 2607              		.cfi_restore 14
 989:mpu_9250.c    ****     I2CReadBit(devAddr, MPU9250_RA_I2C_SLV0_CTRL + num*3, I2C_MPU9250_I2C_SLV_BYTE_SW_BIT, buffer);
 2608              		.loc 1 989 0
 2609 0028 0020     		movs	r0, #0
 2610              	.LVL154:
 2611 002a 7047     		bx	lr
 2612              	.L288:
 2613              		.align	2
 2614              	.L287:
 2615 002c 00000000 		.word	buffer
 2616 0030 00000000 		.word	devAddr
 2617              		.cfi_endproc
 2618              	.LFE69:
 2619              		.size	MPU9250_getSlaveWordByteSwap, .-MPU9250_getSlaveWordByteSwap
 2620              		.section	.text.MPU9250_setSlaveWordByteSwap,"ax",%progbits
 2621              		.align	2
 2622              		.global	MPU9250_setSlaveWordByteSwap
 2623              		.thumb
 2624              		.thumb_func
 2625              		.type	MPU9250_setSlaveWordByteSwap, %function
 2626              	MPU9250_setSlaveWordByteSwap:
 2627              	.LFB70:
 992:mpu_9250.c    **** }
 993:mpu_9250.c    **** /** Set word pair byte-swapping enabled for the specified slave (0-3).
 994:mpu_9250.c    ****  * @param num Slave number (0-3)
 995:mpu_9250.c    ****  * @param enabled New word pair byte-swapping enabled value for specified slave
 996:mpu_9250.c    ****  * @see getSlaveWordByteSwap()
 997:mpu_9250.c    ****  * @see MPU9250_RA_I2C_SLV0_CTRL
 998:mpu_9250.c    ****  */
 999:mpu_9250.c    **** void MPU9250_setSlaveWordByteSwap(uint8_t num, bool enabled) {
 2628              		.loc 1 999 0
 2629              		.cfi_startproc
 2630              		@ args = 0, pretend = 0, frame = 0
 2631              		@ frame_needed = 0, uses_anonymous_args = 0
 2632              	.LVL155:
1000:mpu_9250.c    ****     if (num > 3) return;
 2633              		.loc 1 1000 0
 2634 0000 0328     		cmp	r0, #3
 2635 0002 0CD8     		bhi	.L292
 999:mpu_9250.c    ****     if (num > 3) return;
 2636              		.loc 1 999 0
ARM GAS  C:\Users\hima\AppData\Local\Temp\ccR4vqcc.s 			page 65


 2637 0004 08B5     		push	{r3, lr}
 2638              		.cfi_def_cfa_offset 8
 2639              		.cfi_offset 3, -8
 2640              		.cfi_offset 14, -4
 2641 0006 0B46     		mov	r3, r1
1001:mpu_9250.c    ****     I2CWriteBit(devAddr, MPU9250_RA_I2C_SLV0_CTRL + num*3, I2C_MPU9250_I2C_SLV_BYTE_SW_BIT, enabled
 2642              		.loc 1 1001 0
 2643 0008 00EB4000 		add	r0, r0, r0, lsl #1
 2644              	.LVL156:
 2645 000c 00F12702 		add	r2, r0, #39
 2646 0010 0349     		ldr	r1, .L293
 2647              	.LVL157:
 2648 0012 0878     		ldrb	r0, [r1]	@ zero_extendqisi2
 2649 0014 D1B2     		uxtb	r1, r2
 2650 0016 0622     		movs	r2, #6
 2651 0018 FFF7FEFF 		bl	I2CWriteBit
 2652              	.LVL158:
 2653 001c 08BD     		pop	{r3, pc}
 2654              	.LVL159:
 2655              	.L292:
 2656              		.cfi_def_cfa_offset 0
 2657              		.cfi_restore 3
 2658              		.cfi_restore 14
 2659 001e 7047     		bx	lr
 2660              	.L294:
 2661              		.align	2
 2662              	.L293:
 2663 0020 00000000 		.word	devAddr
 2664              		.cfi_endproc
 2665              	.LFE70:
 2666              		.size	MPU9250_setSlaveWordByteSwap, .-MPU9250_setSlaveWordByteSwap
 2667              		.section	.text.MPU9250_getSlaveWriteMode,"ax",%progbits
 2668              		.align	2
 2669              		.global	MPU9250_getSlaveWriteMode
 2670              		.thumb
 2671              		.thumb_func
 2672              		.type	MPU9250_getSlaveWriteMode, %function
 2673              	MPU9250_getSlaveWriteMode:
 2674              	.LFB71:
1002:mpu_9250.c    **** }
1003:mpu_9250.c    **** /** Get write mode for the specified slave (0-3).
1004:mpu_9250.c    ****  * When set to 1, the transaction will read or write data only. When cleared to
1005:mpu_9250.c    ****  * 0, the transaction will write a register address prior to reading or writing
1006:mpu_9250.c    ****  * data. This should equal 0 when specifying the register address within the
1007:mpu_9250.c    ****  * Slave device to/from which the ensuing data transaction will take place.
1008:mpu_9250.c    ****  *
1009:mpu_9250.c    ****  * @param num Slave number (0-3)
1010:mpu_9250.c    ****  * @return Current write mode for specified slave (0 = register address + data, 1 = data only)
1011:mpu_9250.c    ****  * @see MPU9250_RA_I2C_SLV0_CTRL
1012:mpu_9250.c    ****  */
1013:mpu_9250.c    **** bool MPU9250_getSlaveWriteMode(uint8_t num) {
 2675              		.loc 1 1013 0
 2676              		.cfi_startproc
 2677              		@ args = 0, pretend = 0, frame = 0
 2678              		@ frame_needed = 0, uses_anonymous_args = 0
 2679              	.LVL160:
1014:mpu_9250.c    ****     if (num > 3) return 0;
ARM GAS  C:\Users\hima\AppData\Local\Temp\ccR4vqcc.s 			page 66


 2680              		.loc 1 1014 0
 2681 0000 0328     		cmp	r0, #3
 2682 0002 11D8     		bhi	.L297
1013:mpu_9250.c    ****     if (num > 3) return 0;
 2683              		.loc 1 1013 0
 2684 0004 10B5     		push	{r4, lr}
 2685              		.cfi_def_cfa_offset 8
 2686              		.cfi_offset 4, -8
 2687              		.cfi_offset 14, -4
1015:mpu_9250.c    ****     I2CReadBit(devAddr, MPU9250_RA_I2C_SLV0_CTRL + num*3, I2C_MPU9250_I2C_SLV_REG_DIS_BIT, buffer);
 2688              		.loc 1 1015 0
 2689 0006 00EB4000 		add	r0, r0, r0, lsl #1
 2690              	.LVL161:
 2691 000a 00F12701 		add	r1, r0, #39
 2692 000e 074C     		ldr	r4, .L300
 2693 0010 074B     		ldr	r3, .L300+4
 2694 0012 1878     		ldrb	r0, [r3]	@ zero_extendqisi2
 2695 0014 C9B2     		uxtb	r1, r1
 2696 0016 0522     		movs	r2, #5
 2697 0018 2346     		mov	r3, r4
 2698 001a FFF7FEFF 		bl	I2CReadBit
 2699              	.LVL162:
1016:mpu_9250.c    ****     return buffer[0];
 2700              		.loc 1 1016 0
 2701 001e 2078     		ldrb	r0, [r4]	@ zero_extendqisi2
 2702 0020 0030     		adds	r0, r0, #0
 2703 0022 18BF     		it	ne
 2704 0024 0120     		movne	r0, #1
 2705 0026 10BD     		pop	{r4, pc}
 2706              	.LVL163:
 2707              	.L297:
 2708              		.cfi_def_cfa_offset 0
 2709              		.cfi_restore 4
 2710              		.cfi_restore 14
1014:mpu_9250.c    ****     I2CReadBit(devAddr, MPU9250_RA_I2C_SLV0_CTRL + num*3, I2C_MPU9250_I2C_SLV_REG_DIS_BIT, buffer);
 2711              		.loc 1 1014 0
 2712 0028 0020     		movs	r0, #0
 2713              	.LVL164:
 2714 002a 7047     		bx	lr
 2715              	.L301:
 2716              		.align	2
 2717              	.L300:
 2718 002c 00000000 		.word	buffer
 2719 0030 00000000 		.word	devAddr
 2720              		.cfi_endproc
 2721              	.LFE71:
 2722              		.size	MPU9250_getSlaveWriteMode, .-MPU9250_getSlaveWriteMode
 2723              		.section	.text.MPU9250_setSlaveWriteMode,"ax",%progbits
 2724              		.align	2
 2725              		.global	MPU9250_setSlaveWriteMode
 2726              		.thumb
 2727              		.thumb_func
 2728              		.type	MPU9250_setSlaveWriteMode, %function
 2729              	MPU9250_setSlaveWriteMode:
 2730              	.LFB72:
1017:mpu_9250.c    **** }
1018:mpu_9250.c    **** /** Set write mode for the specified slave (0-3).
ARM GAS  C:\Users\hima\AppData\Local\Temp\ccR4vqcc.s 			page 67


1019:mpu_9250.c    ****  * @param num Slave number (0-3)
1020:mpu_9250.c    ****  * @param mode New write mode for specified slave (0 = register address + data, 1 = data only)
1021:mpu_9250.c    ****  * @see getSlaveWriteMode()
1022:mpu_9250.c    ****  * @see MPU9250_RA_I2C_SLV0_CTRL
1023:mpu_9250.c    ****  */
1024:mpu_9250.c    **** void MPU9250_setSlaveWriteMode(uint8_t num, bool mode) {
 2731              		.loc 1 1024 0
 2732              		.cfi_startproc
 2733              		@ args = 0, pretend = 0, frame = 0
 2734              		@ frame_needed = 0, uses_anonymous_args = 0
 2735              	.LVL165:
1025:mpu_9250.c    ****     if (num > 3) return;
 2736              		.loc 1 1025 0
 2737 0000 0328     		cmp	r0, #3
 2738 0002 0CD8     		bhi	.L305
1024:mpu_9250.c    ****     if (num > 3) return;
 2739              		.loc 1 1024 0
 2740 0004 08B5     		push	{r3, lr}
 2741              		.cfi_def_cfa_offset 8
 2742              		.cfi_offset 3, -8
 2743              		.cfi_offset 14, -4
 2744 0006 0B46     		mov	r3, r1
1026:mpu_9250.c    ****     I2CWriteBit(devAddr, MPU9250_RA_I2C_SLV0_CTRL + num*3, I2C_MPU9250_I2C_SLV_REG_DIS_BIT, mode);
 2745              		.loc 1 1026 0
 2746 0008 00EB4000 		add	r0, r0, r0, lsl #1
 2747              	.LVL166:
 2748 000c 00F12702 		add	r2, r0, #39
 2749 0010 0349     		ldr	r1, .L306
 2750              	.LVL167:
 2751 0012 0878     		ldrb	r0, [r1]	@ zero_extendqisi2
 2752 0014 D1B2     		uxtb	r1, r2
 2753 0016 0522     		movs	r2, #5
 2754 0018 FFF7FEFF 		bl	I2CWriteBit
 2755              	.LVL168:
 2756 001c 08BD     		pop	{r3, pc}
 2757              	.LVL169:
 2758              	.L305:
 2759              		.cfi_def_cfa_offset 0
 2760              		.cfi_restore 3
 2761              		.cfi_restore 14
 2762 001e 7047     		bx	lr
 2763              	.L307:
 2764              		.align	2
 2765              	.L306:
 2766 0020 00000000 		.word	devAddr
 2767              		.cfi_endproc
 2768              	.LFE72:
 2769              		.size	MPU9250_setSlaveWriteMode, .-MPU9250_setSlaveWriteMode
 2770              		.section	.text.MPU9250_getSlaveWordGroupOffset,"ax",%progbits
 2771              		.align	2
 2772              		.global	MPU9250_getSlaveWordGroupOffset
 2773              		.thumb
 2774              		.thumb_func
 2775              		.type	MPU9250_getSlaveWordGroupOffset, %function
 2776              	MPU9250_getSlaveWordGroupOffset:
 2777              	.LFB73:
1027:mpu_9250.c    **** }
ARM GAS  C:\Users\hima\AppData\Local\Temp\ccR4vqcc.s 			page 68


1028:mpu_9250.c    **** /** Get word pair grouping order offset for the specified slave (0-3).
1029:mpu_9250.c    ****  * This sets specifies the grouping order of word pairs received from registers.
1030:mpu_9250.c    ****  * When cleared to 0, bytes from register addresses 0 and 1, 2 and 3, etc (even,
1031:mpu_9250.c    ****  * then odd register addresses) are paired to form a word. When set to 1, bytes
1032:mpu_9250.c    ****  * from register addresses are paired 1 and 2, 3 and 4, etc. (odd, then even
1033:mpu_9250.c    ****  * register addresses) are paired to form a word.
1034:mpu_9250.c    ****  *
1035:mpu_9250.c    ****  * @param num Slave number (0-3)
1036:mpu_9250.c    ****  * @return Current word pair grouping order offset for specified slave
1037:mpu_9250.c    ****  * @see MPU9250_RA_I2C_SLV0_CTRL
1038:mpu_9250.c    ****  */
1039:mpu_9250.c    **** bool MPU9250_getSlaveWordGroupOffset(uint8_t num) {
 2778              		.loc 1 1039 0
 2779              		.cfi_startproc
 2780              		@ args = 0, pretend = 0, frame = 0
 2781              		@ frame_needed = 0, uses_anonymous_args = 0
 2782              	.LVL170:
1040:mpu_9250.c    ****     if (num > 3) return 0;
 2783              		.loc 1 1040 0
 2784 0000 0328     		cmp	r0, #3
 2785 0002 11D8     		bhi	.L310
1039:mpu_9250.c    ****     if (num > 3) return 0;
 2786              		.loc 1 1039 0
 2787 0004 10B5     		push	{r4, lr}
 2788              		.cfi_def_cfa_offset 8
 2789              		.cfi_offset 4, -8
 2790              		.cfi_offset 14, -4
1041:mpu_9250.c    ****     I2CReadBit(devAddr, MPU9250_RA_I2C_SLV0_CTRL + num*3, I2C_MPU9250_I2C_SLV_GRP_BIT, buffer);
 2791              		.loc 1 1041 0
 2792 0006 00EB4000 		add	r0, r0, r0, lsl #1
 2793              	.LVL171:
 2794 000a 00F12701 		add	r1, r0, #39
 2795 000e 074C     		ldr	r4, .L313
 2796 0010 074B     		ldr	r3, .L313+4
 2797 0012 1878     		ldrb	r0, [r3]	@ zero_extendqisi2
 2798 0014 C9B2     		uxtb	r1, r1
 2799 0016 0422     		movs	r2, #4
 2800 0018 2346     		mov	r3, r4
 2801 001a FFF7FEFF 		bl	I2CReadBit
 2802              	.LVL172:
1042:mpu_9250.c    ****     return buffer[0];
 2803              		.loc 1 1042 0
 2804 001e 2078     		ldrb	r0, [r4]	@ zero_extendqisi2
 2805 0020 0030     		adds	r0, r0, #0
 2806 0022 18BF     		it	ne
 2807 0024 0120     		movne	r0, #1
 2808 0026 10BD     		pop	{r4, pc}
 2809              	.LVL173:
 2810              	.L310:
 2811              		.cfi_def_cfa_offset 0
 2812              		.cfi_restore 4
 2813              		.cfi_restore 14
1040:mpu_9250.c    ****     I2CReadBit(devAddr, MPU9250_RA_I2C_SLV0_CTRL + num*3, I2C_MPU9250_I2C_SLV_GRP_BIT, buffer);
 2814              		.loc 1 1040 0
 2815 0028 0020     		movs	r0, #0
 2816              	.LVL174:
 2817 002a 7047     		bx	lr
ARM GAS  C:\Users\hima\AppData\Local\Temp\ccR4vqcc.s 			page 69


 2818              	.L314:
 2819              		.align	2
 2820              	.L313:
 2821 002c 00000000 		.word	buffer
 2822 0030 00000000 		.word	devAddr
 2823              		.cfi_endproc
 2824              	.LFE73:
 2825              		.size	MPU9250_getSlaveWordGroupOffset, .-MPU9250_getSlaveWordGroupOffset
 2826              		.section	.text.MPU9250_setSlaveWordGroupOffset,"ax",%progbits
 2827              		.align	2
 2828              		.global	MPU9250_setSlaveWordGroupOffset
 2829              		.thumb
 2830              		.thumb_func
 2831              		.type	MPU9250_setSlaveWordGroupOffset, %function
 2832              	MPU9250_setSlaveWordGroupOffset:
 2833              	.LFB74:
1043:mpu_9250.c    **** }
1044:mpu_9250.c    **** /** Set word pair grouping order offset for the specified slave (0-3).
1045:mpu_9250.c    ****  * @param num Slave number (0-3)
1046:mpu_9250.c    ****  * @param enabled New word pair grouping order offset for specified slave
1047:mpu_9250.c    ****  * @see getSlaveWordGroupOffset()
1048:mpu_9250.c    ****  * @see MPU9250_RA_I2C_SLV0_CTRL
1049:mpu_9250.c    ****  */
1050:mpu_9250.c    **** void MPU9250_setSlaveWordGroupOffset(uint8_t num, bool enabled) {
 2834              		.loc 1 1050 0
 2835              		.cfi_startproc
 2836              		@ args = 0, pretend = 0, frame = 0
 2837              		@ frame_needed = 0, uses_anonymous_args = 0
 2838              	.LVL175:
1051:mpu_9250.c    ****     if (num > 3) return;
 2839              		.loc 1 1051 0
 2840 0000 0328     		cmp	r0, #3
 2841 0002 0CD8     		bhi	.L318
1050:mpu_9250.c    ****     if (num > 3) return;
 2842              		.loc 1 1050 0
 2843 0004 08B5     		push	{r3, lr}
 2844              		.cfi_def_cfa_offset 8
 2845              		.cfi_offset 3, -8
 2846              		.cfi_offset 14, -4
 2847 0006 0B46     		mov	r3, r1
1052:mpu_9250.c    ****     I2CWriteBit(devAddr, MPU9250_RA_I2C_SLV0_CTRL + num*3, I2C_MPU9250_I2C_SLV_GRP_BIT, enabled);
 2848              		.loc 1 1052 0
 2849 0008 00EB4000 		add	r0, r0, r0, lsl #1
 2850              	.LVL176:
 2851 000c 00F12702 		add	r2, r0, #39
 2852 0010 0349     		ldr	r1, .L319
 2853              	.LVL177:
 2854 0012 0878     		ldrb	r0, [r1]	@ zero_extendqisi2
 2855 0014 D1B2     		uxtb	r1, r2
 2856 0016 0422     		movs	r2, #4
 2857 0018 FFF7FEFF 		bl	I2CWriteBit
 2858              	.LVL178:
 2859 001c 08BD     		pop	{r3, pc}
 2860              	.LVL179:
 2861              	.L318:
 2862              		.cfi_def_cfa_offset 0
 2863              		.cfi_restore 3
ARM GAS  C:\Users\hima\AppData\Local\Temp\ccR4vqcc.s 			page 70


 2864              		.cfi_restore 14
 2865 001e 7047     		bx	lr
 2866              	.L320:
 2867              		.align	2
 2868              	.L319:
 2869 0020 00000000 		.word	devAddr
 2870              		.cfi_endproc
 2871              	.LFE74:
 2872              		.size	MPU9250_setSlaveWordGroupOffset, .-MPU9250_setSlaveWordGroupOffset
 2873              		.section	.text.MPU9250_getSlaveDataLength,"ax",%progbits
 2874              		.align	2
 2875              		.global	MPU9250_getSlaveDataLength
 2876              		.thumb
 2877              		.thumb_func
 2878              		.type	MPU9250_getSlaveDataLength, %function
 2879              	MPU9250_getSlaveDataLength:
 2880              	.LFB75:
1053:mpu_9250.c    **** }
1054:mpu_9250.c    **** /** Get number of bytes to read for the specified slave (0-3).
1055:mpu_9250.c    ****  * Specifies the number of bytes transferred to and from Slave 0. Clearing this
1056:mpu_9250.c    ****  * bit to 0 is equivalent to disabling the register by writing 0 to I2C_SLV0_EN.
1057:mpu_9250.c    ****  * @param num Slave number (0-3)
1058:mpu_9250.c    ****  * @return Number of bytes to read for specified slave
1059:mpu_9250.c    ****  * @see MPU9250_RA_I2C_SLV0_CTRL
1060:mpu_9250.c    ****  */
1061:mpu_9250.c    **** uint8_t MPU9250_getSlaveDataLength(uint8_t num) {
 2881              		.loc 1 1061 0
 2882              		.cfi_startproc
 2883              		@ args = 0, pretend = 0, frame = 0
 2884              		@ frame_needed = 0, uses_anonymous_args = 0
 2885              	.LVL180:
1062:mpu_9250.c    ****     if (num > 3) return 0;
 2886              		.loc 1 1062 0
 2887 0000 0328     		cmp	r0, #3
 2888 0002 10D8     		bhi	.L323
1061:mpu_9250.c    ****     if (num > 3) return 0;
 2889              		.loc 1 1061 0
 2890 0004 10B5     		push	{r4, lr}
 2891              		.cfi_def_cfa_offset 8
 2892              		.cfi_offset 4, -8
 2893              		.cfi_offset 14, -4
 2894 0006 82B0     		sub	sp, sp, #8
 2895              		.cfi_def_cfa_offset 16
 2896 0008 0146     		mov	r1, r0
1063:mpu_9250.c    ****     I2CReadBits(devAddr, MPU9250_RA_I2C_SLV0_CTRL + num*3, I2C_MPU9250_I2C_SLV_LEN_BIT, I2C_MPU9250
 2897              		.loc 1 1063 0
 2898 000a 094B     		ldr	r3, .L326
 2899 000c 1878     		ldrb	r0, [r3]	@ zero_extendqisi2
 2900              	.LVL181:
 2901 000e 01EB4101 		add	r1, r1, r1, lsl #1
 2902 0012 2731     		adds	r1, r1, #39
 2903 0014 074C     		ldr	r4, .L326+4
 2904 0016 0094     		str	r4, [sp]
 2905 0018 C9B2     		uxtb	r1, r1
 2906 001a 0322     		movs	r2, #3
 2907 001c 0423     		movs	r3, #4
 2908 001e FFF7FEFF 		bl	I2CReadBits
ARM GAS  C:\Users\hima\AppData\Local\Temp\ccR4vqcc.s 			page 71


 2909              	.LVL182:
1064:mpu_9250.c    ****     return buffer[0];
 2910              		.loc 1 1064 0
 2911 0022 2078     		ldrb	r0, [r4]	@ zero_extendqisi2
 2912 0024 01E0     		b	.L322
 2913              	.LVL183:
 2914              	.L323:
 2915              		.cfi_def_cfa_offset 0
 2916              		.cfi_restore 4
 2917              		.cfi_restore 14
1062:mpu_9250.c    ****     I2CReadBits(devAddr, MPU9250_RA_I2C_SLV0_CTRL + num*3, I2C_MPU9250_I2C_SLV_LEN_BIT, I2C_MPU9250
 2918              		.loc 1 1062 0
 2919 0026 0020     		movs	r0, #0
 2920              	.LVL184:
 2921 0028 7047     		bx	lr
 2922              	.L322:
 2923              		.cfi_def_cfa_offset 16
 2924              		.cfi_offset 4, -8
 2925              		.cfi_offset 14, -4
1065:mpu_9250.c    **** }
 2926              		.loc 1 1065 0
 2927 002a 02B0     		add	sp, sp, #8
 2928              		.cfi_def_cfa_offset 8
 2929              		@ sp needed
 2930 002c 10BD     		pop	{r4, pc}
 2931              	.L327:
 2932 002e 00BF     		.align	2
 2933              	.L326:
 2934 0030 00000000 		.word	devAddr
 2935 0034 00000000 		.word	buffer
 2936              		.cfi_endproc
 2937              	.LFE75:
 2938              		.size	MPU9250_getSlaveDataLength, .-MPU9250_getSlaveDataLength
 2939              		.section	.text.MPU9250_setSlaveDataLength,"ax",%progbits
 2940              		.align	2
 2941              		.global	MPU9250_setSlaveDataLength
 2942              		.thumb
 2943              		.thumb_func
 2944              		.type	MPU9250_setSlaveDataLength, %function
 2945              	MPU9250_setSlaveDataLength:
 2946              	.LFB76:
1066:mpu_9250.c    **** /** Set number of bytes to read for the specified slave (0-3).
1067:mpu_9250.c    ****  * @param num Slave number (0-3)
1068:mpu_9250.c    ****  * @param length Number of bytes to read for specified slave
1069:mpu_9250.c    ****  * @see getSlaveDataLength()
1070:mpu_9250.c    ****  * @see MPU9250_RA_I2C_SLV0_CTRL
1071:mpu_9250.c    ****  */
1072:mpu_9250.c    **** void MPU9250_setSlaveDataLength(uint8_t num, uint8_t length) {
 2947              		.loc 1 1072 0
 2948              		.cfi_startproc
 2949              		@ args = 0, pretend = 0, frame = 0
 2950              		@ frame_needed = 0, uses_anonymous_args = 0
 2951              	.LVL185:
1073:mpu_9250.c    ****     if (num > 3) return;
 2952              		.loc 1 1073 0
 2953 0000 0328     		cmp	r0, #3
 2954 0002 10D8     		bhi	.L331
ARM GAS  C:\Users\hima\AppData\Local\Temp\ccR4vqcc.s 			page 72


1072:mpu_9250.c    ****     if (num > 3) return;
 2955              		.loc 1 1072 0
 2956 0004 00B5     		push	{lr}
 2957              		.cfi_def_cfa_offset 4
 2958              		.cfi_offset 14, -4
 2959 0006 83B0     		sub	sp, sp, #12
 2960              		.cfi_def_cfa_offset 16
 2961 0008 0346     		mov	r3, r0
1074:mpu_9250.c    ****     I2CWriteBits(devAddr, MPU9250_RA_I2C_SLV0_CTRL + num*3, I2C_MPU9250_I2C_SLV_LEN_BIT, I2C_MPU925
 2962              		.loc 1 1074 0
 2963 000a 074A     		ldr	r2, .L332
 2964 000c 1078     		ldrb	r0, [r2]	@ zero_extendqisi2
 2965              	.LVL186:
 2966 000e 03EB4303 		add	r3, r3, r3, lsl #1
 2967 0012 2733     		adds	r3, r3, #39
 2968 0014 0091     		str	r1, [sp]
 2969 0016 D9B2     		uxtb	r1, r3
 2970              	.LVL187:
 2971 0018 0322     		movs	r2, #3
 2972 001a 0423     		movs	r3, #4
 2973 001c FFF7FEFF 		bl	I2CWriteBits
 2974              	.LVL188:
1075:mpu_9250.c    **** }
 2975              		.loc 1 1075 0
 2976 0020 03B0     		add	sp, sp, #12
 2977              		.cfi_def_cfa_offset 4
 2978              		@ sp needed
 2979 0022 5DF804FB 		ldr	pc, [sp], #4
 2980              	.LVL189:
 2981              	.L331:
 2982              		.cfi_def_cfa_offset 0
 2983              		.cfi_restore 14
 2984 0026 7047     		bx	lr
 2985              	.L333:
 2986              		.align	2
 2987              	.L332:
 2988 0028 00000000 		.word	devAddr
 2989              		.cfi_endproc
 2990              	.LFE76:
 2991              		.size	MPU9250_setSlaveDataLength, .-MPU9250_setSlaveDataLength
 2992              		.section	.text.MPU9250_getSlave4Address,"ax",%progbits
 2993              		.align	2
 2994              		.global	MPU9250_getSlave4Address
 2995              		.thumb
 2996              		.thumb_func
 2997              		.type	MPU9250_getSlave4Address, %function
 2998              	MPU9250_getSlave4Address:
 2999              	.LFB77:
1076:mpu_9250.c    **** 
1077:mpu_9250.c    **** // I2C_SLV* registers (Slave 4)
1078:mpu_9250.c    **** 
1079:mpu_9250.c    **** /** Get the I2C address of Slave 4.
1080:mpu_9250.c    ****  * Note that Bit 7 (MSB) controls read/write mode. If Bit 7 is set, it's a read
1081:mpu_9250.c    ****  * operation, and if it is cleared, then it's a write operation. The remaining
1082:mpu_9250.c    ****  * bits (6-0) are the 7-bit device address of the slave device.
1083:mpu_9250.c    ****  *
1084:mpu_9250.c    ****  * @return Current address for Slave 4
ARM GAS  C:\Users\hima\AppData\Local\Temp\ccR4vqcc.s 			page 73


1085:mpu_9250.c    ****  * @see getSlaveAddress()
1086:mpu_9250.c    ****  * @see MPU9250_RA_I2C_SLV4_ADDR
1087:mpu_9250.c    ****  */
1088:mpu_9250.c    **** uint8_t MPU9250_getSlave4Address() {
 3000              		.loc 1 1088 0
 3001              		.cfi_startproc
 3002              		@ args = 0, pretend = 0, frame = 0
 3003              		@ frame_needed = 0, uses_anonymous_args = 0
 3004 0000 10B5     		push	{r4, lr}
 3005              		.cfi_def_cfa_offset 8
 3006              		.cfi_offset 4, -8
 3007              		.cfi_offset 14, -4
1089:mpu_9250.c    ****     I2CReadByte(devAddr, MPU9250_RA_I2C_SLV4_ADDR, buffer);
 3008              		.loc 1 1089 0
 3009 0002 044C     		ldr	r4, .L336
 3010 0004 044B     		ldr	r3, .L336+4
 3011 0006 1878     		ldrb	r0, [r3]	@ zero_extendqisi2
 3012 0008 3121     		movs	r1, #49
 3013 000a 2246     		mov	r2, r4
 3014 000c FFF7FEFF 		bl	I2CReadByte
 3015              	.LVL190:
1090:mpu_9250.c    ****     return buffer[0];
1091:mpu_9250.c    **** }
 3016              		.loc 1 1091 0
 3017 0010 2078     		ldrb	r0, [r4]	@ zero_extendqisi2
 3018 0012 10BD     		pop	{r4, pc}
 3019              	.L337:
 3020              		.align	2
 3021              	.L336:
 3022 0014 00000000 		.word	buffer
 3023 0018 00000000 		.word	devAddr
 3024              		.cfi_endproc
 3025              	.LFE77:
 3026              		.size	MPU9250_getSlave4Address, .-MPU9250_getSlave4Address
 3027              		.section	.text.MPU9250_setSlave4Address,"ax",%progbits
 3028              		.align	2
 3029              		.global	MPU9250_setSlave4Address
 3030              		.thumb
 3031              		.thumb_func
 3032              		.type	MPU9250_setSlave4Address, %function
 3033              	MPU9250_setSlave4Address:
 3034              	.LFB78:
1092:mpu_9250.c    **** /** Set the I2C address of Slave 4.
1093:mpu_9250.c    ****  * @param address New address for Slave 4
1094:mpu_9250.c    ****  * @see getSlave4Address()
1095:mpu_9250.c    ****  * @see MPU9250_RA_I2C_SLV4_ADDR
1096:mpu_9250.c    ****  */
1097:mpu_9250.c    **** void MPU9250_setSlave4Address(uint8_t address) {
 3035              		.loc 1 1097 0
 3036              		.cfi_startproc
 3037              		@ args = 0, pretend = 0, frame = 0
 3038              		@ frame_needed = 0, uses_anonymous_args = 0
 3039              	.LVL191:
 3040 0000 08B5     		push	{r3, lr}
 3041              		.cfi_def_cfa_offset 8
 3042              		.cfi_offset 3, -8
 3043              		.cfi_offset 14, -4
ARM GAS  C:\Users\hima\AppData\Local\Temp\ccR4vqcc.s 			page 74


 3044 0002 0246     		mov	r2, r0
1098:mpu_9250.c    ****     I2CWriteByte(devAddr, MPU9250_RA_I2C_SLV4_ADDR, address);
 3045              		.loc 1 1098 0
 3046 0004 024B     		ldr	r3, .L340
 3047 0006 1878     		ldrb	r0, [r3]	@ zero_extendqisi2
 3048              	.LVL192:
 3049 0008 3121     		movs	r1, #49
 3050 000a FFF7FEFF 		bl	I2CWriteByte
 3051              	.LVL193:
 3052 000e 08BD     		pop	{r3, pc}
 3053              	.L341:
 3054              		.align	2
 3055              	.L340:
 3056 0010 00000000 		.word	devAddr
 3057              		.cfi_endproc
 3058              	.LFE78:
 3059              		.size	MPU9250_setSlave4Address, .-MPU9250_setSlave4Address
 3060              		.section	.text.MPU9250_getSlave4Register,"ax",%progbits
 3061              		.align	2
 3062              		.global	MPU9250_getSlave4Register
 3063              		.thumb
 3064              		.thumb_func
 3065              		.type	MPU9250_getSlave4Register, %function
 3066              	MPU9250_getSlave4Register:
 3067              	.LFB79:
1099:mpu_9250.c    **** }
1100:mpu_9250.c    **** /** Get the active internal register for the Slave 4.
1101:mpu_9250.c    ****  * Read/write operations for this slave will be done to whatever internal
1102:mpu_9250.c    ****  * register address is stored in this MPU register.
1103:mpu_9250.c    ****  *
1104:mpu_9250.c    ****  * @return Current active register for Slave 4
1105:mpu_9250.c    ****  * @see MPU9250_RA_I2C_SLV4_REG
1106:mpu_9250.c    ****  */
1107:mpu_9250.c    **** uint8_t MPU9250_getSlave4Register() {
 3068              		.loc 1 1107 0
 3069              		.cfi_startproc
 3070              		@ args = 0, pretend = 0, frame = 0
 3071              		@ frame_needed = 0, uses_anonymous_args = 0
 3072 0000 10B5     		push	{r4, lr}
 3073              		.cfi_def_cfa_offset 8
 3074              		.cfi_offset 4, -8
 3075              		.cfi_offset 14, -4
1108:mpu_9250.c    ****     I2CReadByte(devAddr, MPU9250_RA_I2C_SLV4_REG, buffer);
 3076              		.loc 1 1108 0
 3077 0002 044C     		ldr	r4, .L344
 3078 0004 044B     		ldr	r3, .L344+4
 3079 0006 1878     		ldrb	r0, [r3]	@ zero_extendqisi2
 3080 0008 3221     		movs	r1, #50
 3081 000a 2246     		mov	r2, r4
 3082 000c FFF7FEFF 		bl	I2CReadByte
 3083              	.LVL194:
1109:mpu_9250.c    ****     return buffer[0];
1110:mpu_9250.c    **** }
 3084              		.loc 1 1110 0
 3085 0010 2078     		ldrb	r0, [r4]	@ zero_extendqisi2
 3086 0012 10BD     		pop	{r4, pc}
 3087              	.L345:
ARM GAS  C:\Users\hima\AppData\Local\Temp\ccR4vqcc.s 			page 75


 3088              		.align	2
 3089              	.L344:
 3090 0014 00000000 		.word	buffer
 3091 0018 00000000 		.word	devAddr
 3092              		.cfi_endproc
 3093              	.LFE79:
 3094              		.size	MPU9250_getSlave4Register, .-MPU9250_getSlave4Register
 3095              		.section	.text.MPU9250_setSlave4Register,"ax",%progbits
 3096              		.align	2
 3097              		.global	MPU9250_setSlave4Register
 3098              		.thumb
 3099              		.thumb_func
 3100              		.type	MPU9250_setSlave4Register, %function
 3101              	MPU9250_setSlave4Register:
 3102              	.LFB80:
1111:mpu_9250.c    **** /** Set the active internal register for Slave 4.
1112:mpu_9250.c    ****  * @param reg New active register for Slave 4
1113:mpu_9250.c    ****  * @see getSlave4Register()
1114:mpu_9250.c    ****  * @see MPU9250_RA_I2C_SLV4_REG
1115:mpu_9250.c    ****  */
1116:mpu_9250.c    **** void MPU9250_setSlave4Register(uint8_t reg) {
 3103              		.loc 1 1116 0
 3104              		.cfi_startproc
 3105              		@ args = 0, pretend = 0, frame = 0
 3106              		@ frame_needed = 0, uses_anonymous_args = 0
 3107              	.LVL195:
 3108 0000 08B5     		push	{r3, lr}
 3109              		.cfi_def_cfa_offset 8
 3110              		.cfi_offset 3, -8
 3111              		.cfi_offset 14, -4
 3112 0002 0246     		mov	r2, r0
1117:mpu_9250.c    ****     I2CWriteByte(devAddr, MPU9250_RA_I2C_SLV4_REG, reg);
 3113              		.loc 1 1117 0
 3114 0004 024B     		ldr	r3, .L348
 3115 0006 1878     		ldrb	r0, [r3]	@ zero_extendqisi2
 3116              	.LVL196:
 3117 0008 3221     		movs	r1, #50
 3118 000a FFF7FEFF 		bl	I2CWriteByte
 3119              	.LVL197:
 3120 000e 08BD     		pop	{r3, pc}
 3121              	.L349:
 3122              		.align	2
 3123              	.L348:
 3124 0010 00000000 		.word	devAddr
 3125              		.cfi_endproc
 3126              	.LFE80:
 3127              		.size	MPU9250_setSlave4Register, .-MPU9250_setSlave4Register
 3128              		.section	.text.MPU9250_setSlave4OutputByte,"ax",%progbits
 3129              		.align	2
 3130              		.global	MPU9250_setSlave4OutputByte
 3131              		.thumb
 3132              		.thumb_func
 3133              		.type	MPU9250_setSlave4OutputByte, %function
 3134              	MPU9250_setSlave4OutputByte:
 3135              	.LFB81:
1118:mpu_9250.c    **** }
1119:mpu_9250.c    **** /** Set new byte to write to Slave 4.
ARM GAS  C:\Users\hima\AppData\Local\Temp\ccR4vqcc.s 			page 76


1120:mpu_9250.c    ****  * This register stores the data to be written into the Slave 4. If I2C_SLV4_RW
1121:mpu_9250.c    ****  * is set 1 (set to read), this register has no effect.
1122:mpu_9250.c    ****  * @param data New byte to write to Slave 4
1123:mpu_9250.c    ****  * @see MPU9250_RA_I2C_SLV4_DO
1124:mpu_9250.c    ****  */
1125:mpu_9250.c    **** void MPU9250_setSlave4OutputByte(uint8_t data) {
 3136              		.loc 1 1125 0
 3137              		.cfi_startproc
 3138              		@ args = 0, pretend = 0, frame = 0
 3139              		@ frame_needed = 0, uses_anonymous_args = 0
 3140              	.LVL198:
 3141 0000 08B5     		push	{r3, lr}
 3142              		.cfi_def_cfa_offset 8
 3143              		.cfi_offset 3, -8
 3144              		.cfi_offset 14, -4
 3145 0002 0246     		mov	r2, r0
1126:mpu_9250.c    ****     I2CWriteByte(devAddr, MPU9250_RA_I2C_SLV4_DO, data);
 3146              		.loc 1 1126 0
 3147 0004 024B     		ldr	r3, .L352
 3148 0006 1878     		ldrb	r0, [r3]	@ zero_extendqisi2
 3149              	.LVL199:
 3150 0008 3321     		movs	r1, #51
 3151 000a FFF7FEFF 		bl	I2CWriteByte
 3152              	.LVL200:
 3153 000e 08BD     		pop	{r3, pc}
 3154              	.L353:
 3155              		.align	2
 3156              	.L352:
 3157 0010 00000000 		.word	devAddr
 3158              		.cfi_endproc
 3159              	.LFE81:
 3160              		.size	MPU9250_setSlave4OutputByte, .-MPU9250_setSlave4OutputByte
 3161              		.section	.text.MPU9250_getSlave4Enabled,"ax",%progbits
 3162              		.align	2
 3163              		.global	MPU9250_getSlave4Enabled
 3164              		.thumb
 3165              		.thumb_func
 3166              		.type	MPU9250_getSlave4Enabled, %function
 3167              	MPU9250_getSlave4Enabled:
 3168              	.LFB82:
1127:mpu_9250.c    **** }
1128:mpu_9250.c    **** /** Get the enabled value for the Slave 4.
1129:mpu_9250.c    ****  * When set to 1, this bit enables Slave 4 for data transfer operations. When
1130:mpu_9250.c    ****  * cleared to 0, this bit disables Slave 4 from data transfer operations.
1131:mpu_9250.c    ****  * @return Current enabled value for Slave 4
1132:mpu_9250.c    ****  * @see MPU9250_RA_I2C_SLV4_CTRL
1133:mpu_9250.c    ****  */
1134:mpu_9250.c    **** bool MPU9250_getSlave4Enabled() {
 3169              		.loc 1 1134 0
 3170              		.cfi_startproc
 3171              		@ args = 0, pretend = 0, frame = 0
 3172              		@ frame_needed = 0, uses_anonymous_args = 0
 3173 0000 10B5     		push	{r4, lr}
 3174              		.cfi_def_cfa_offset 8
 3175              		.cfi_offset 4, -8
 3176              		.cfi_offset 14, -4
1135:mpu_9250.c    ****     I2CReadBit(devAddr, MPU9250_RA_I2C_SLV4_CTRL, I2C_MPU9250_I2C_SLV4_EN_BIT, buffer);
ARM GAS  C:\Users\hima\AppData\Local\Temp\ccR4vqcc.s 			page 77


 3177              		.loc 1 1135 0
 3178 0002 064C     		ldr	r4, .L356
 3179 0004 064B     		ldr	r3, .L356+4
 3180 0006 1878     		ldrb	r0, [r3]	@ zero_extendqisi2
 3181 0008 3421     		movs	r1, #52
 3182 000a 0722     		movs	r2, #7
 3183 000c 2346     		mov	r3, r4
 3184 000e FFF7FEFF 		bl	I2CReadBit
 3185              	.LVL201:
1136:mpu_9250.c    ****     return buffer[0];
 3186              		.loc 1 1136 0
 3187 0012 2078     		ldrb	r0, [r4]	@ zero_extendqisi2
1137:mpu_9250.c    **** }
 3188              		.loc 1 1137 0
 3189 0014 0030     		adds	r0, r0, #0
 3190 0016 18BF     		it	ne
 3191 0018 0120     		movne	r0, #1
 3192 001a 10BD     		pop	{r4, pc}
 3193              	.L357:
 3194              		.align	2
 3195              	.L356:
 3196 001c 00000000 		.word	buffer
 3197 0020 00000000 		.word	devAddr
 3198              		.cfi_endproc
 3199              	.LFE82:
 3200              		.size	MPU9250_getSlave4Enabled, .-MPU9250_getSlave4Enabled
 3201              		.section	.text.MPU9250_setSlave4Enabled,"ax",%progbits
 3202              		.align	2
 3203              		.global	MPU9250_setSlave4Enabled
 3204              		.thumb
 3205              		.thumb_func
 3206              		.type	MPU9250_setSlave4Enabled, %function
 3207              	MPU9250_setSlave4Enabled:
 3208              	.LFB83:
1138:mpu_9250.c    **** /** Set the enabled value for Slave 4.
1139:mpu_9250.c    ****  * @param enabled New enabled value for Slave 4
1140:mpu_9250.c    ****  * @see getSlave4Enabled()
1141:mpu_9250.c    ****  * @see MPU9250_RA_I2C_SLV4_CTRL
1142:mpu_9250.c    ****  */
1143:mpu_9250.c    **** void MPU9250_setSlave4Enabled(bool enabled) {
 3209              		.loc 1 1143 0
 3210              		.cfi_startproc
 3211              		@ args = 0, pretend = 0, frame = 0
 3212              		@ frame_needed = 0, uses_anonymous_args = 0
 3213              	.LVL202:
 3214 0000 08B5     		push	{r3, lr}
 3215              		.cfi_def_cfa_offset 8
 3216              		.cfi_offset 3, -8
 3217              		.cfi_offset 14, -4
 3218 0002 0346     		mov	r3, r0
1144:mpu_9250.c    ****     I2CWriteBit(devAddr, MPU9250_RA_I2C_SLV4_CTRL, I2C_MPU9250_I2C_SLV4_EN_BIT, enabled);
 3219              		.loc 1 1144 0
 3220 0004 034A     		ldr	r2, .L360
 3221 0006 1078     		ldrb	r0, [r2]	@ zero_extendqisi2
 3222              	.LVL203:
 3223 0008 3421     		movs	r1, #52
 3224 000a 0722     		movs	r2, #7
ARM GAS  C:\Users\hima\AppData\Local\Temp\ccR4vqcc.s 			page 78


 3225 000c FFF7FEFF 		bl	I2CWriteBit
 3226              	.LVL204:
 3227 0010 08BD     		pop	{r3, pc}
 3228              	.L361:
 3229 0012 00BF     		.align	2
 3230              	.L360:
 3231 0014 00000000 		.word	devAddr
 3232              		.cfi_endproc
 3233              	.LFE83:
 3234              		.size	MPU9250_setSlave4Enabled, .-MPU9250_setSlave4Enabled
 3235              		.section	.text.MPU9250_getSlave4InterruptEnabled,"ax",%progbits
 3236              		.align	2
 3237              		.global	MPU9250_getSlave4InterruptEnabled
 3238              		.thumb
 3239              		.thumb_func
 3240              		.type	MPU9250_getSlave4InterruptEnabled, %function
 3241              	MPU9250_getSlave4InterruptEnabled:
 3242              	.LFB84:
1145:mpu_9250.c    **** }
1146:mpu_9250.c    **** /** Get the enabled value for Slave 4 transaction interrupts.
1147:mpu_9250.c    ****  * When set to 1, this bit enables the generation of an interrupt signal upon
1148:mpu_9250.c    ****  * completion of a Slave 4 transaction. When cleared to 0, this bit disables the
1149:mpu_9250.c    ****  * generation of an interrupt signal upon completion of a Slave 4 transaction.
1150:mpu_9250.c    ****  * The interrupt status can be observed in Register 54.
1151:mpu_9250.c    ****  *
1152:mpu_9250.c    ****  * @return Current enabled value for Slave 4 transaction interrupts.
1153:mpu_9250.c    ****  * @see MPU9250_RA_I2C_SLV4_CTRL
1154:mpu_9250.c    ****  */
1155:mpu_9250.c    **** bool MPU9250_getSlave4InterruptEnabled() {
 3243              		.loc 1 1155 0
 3244              		.cfi_startproc
 3245              		@ args = 0, pretend = 0, frame = 0
 3246              		@ frame_needed = 0, uses_anonymous_args = 0
 3247 0000 10B5     		push	{r4, lr}
 3248              		.cfi_def_cfa_offset 8
 3249              		.cfi_offset 4, -8
 3250              		.cfi_offset 14, -4
1156:mpu_9250.c    ****     I2CReadBit(devAddr, MPU9250_RA_I2C_SLV4_CTRL, I2C_MPU9250_I2C_SLV4_INT_EN_BIT, buffer);
 3251              		.loc 1 1156 0
 3252 0002 064C     		ldr	r4, .L364
 3253 0004 064B     		ldr	r3, .L364+4
 3254 0006 1878     		ldrb	r0, [r3]	@ zero_extendqisi2
 3255 0008 3421     		movs	r1, #52
 3256 000a 0622     		movs	r2, #6
 3257 000c 2346     		mov	r3, r4
 3258 000e FFF7FEFF 		bl	I2CReadBit
 3259              	.LVL205:
1157:mpu_9250.c    ****     return buffer[0];
 3260              		.loc 1 1157 0
 3261 0012 2078     		ldrb	r0, [r4]	@ zero_extendqisi2
1158:mpu_9250.c    **** }
 3262              		.loc 1 1158 0
 3263 0014 0030     		adds	r0, r0, #0
 3264 0016 18BF     		it	ne
 3265 0018 0120     		movne	r0, #1
 3266 001a 10BD     		pop	{r4, pc}
 3267              	.L365:
ARM GAS  C:\Users\hima\AppData\Local\Temp\ccR4vqcc.s 			page 79


 3268              		.align	2
 3269              	.L364:
 3270 001c 00000000 		.word	buffer
 3271 0020 00000000 		.word	devAddr
 3272              		.cfi_endproc
 3273              	.LFE84:
 3274              		.size	MPU9250_getSlave4InterruptEnabled, .-MPU9250_getSlave4InterruptEnabled
 3275              		.section	.text.MPU9250_setSlave4InterruptEnabled,"ax",%progbits
 3276              		.align	2
 3277              		.global	MPU9250_setSlave4InterruptEnabled
 3278              		.thumb
 3279              		.thumb_func
 3280              		.type	MPU9250_setSlave4InterruptEnabled, %function
 3281              	MPU9250_setSlave4InterruptEnabled:
 3282              	.LFB85:
1159:mpu_9250.c    **** /** Set the enabled value for Slave 4 transaction interrupts.
1160:mpu_9250.c    ****  * @param enabled New enabled value for Slave 4 transaction interrupts.
1161:mpu_9250.c    ****  * @see getSlave4InterruptEnabled()
1162:mpu_9250.c    ****  * @see MPU9250_RA_I2C_SLV4_CTRL
1163:mpu_9250.c    ****  */
1164:mpu_9250.c    **** void MPU9250_setSlave4InterruptEnabled(bool enabled) {
 3283              		.loc 1 1164 0
 3284              		.cfi_startproc
 3285              		@ args = 0, pretend = 0, frame = 0
 3286              		@ frame_needed = 0, uses_anonymous_args = 0
 3287              	.LVL206:
 3288 0000 08B5     		push	{r3, lr}
 3289              		.cfi_def_cfa_offset 8
 3290              		.cfi_offset 3, -8
 3291              		.cfi_offset 14, -4
 3292 0002 0346     		mov	r3, r0
1165:mpu_9250.c    ****     I2CWriteBit(devAddr, MPU9250_RA_I2C_SLV4_CTRL, I2C_MPU9250_I2C_SLV4_INT_EN_BIT, enabled);
 3293              		.loc 1 1165 0
 3294 0004 034A     		ldr	r2, .L368
 3295 0006 1078     		ldrb	r0, [r2]	@ zero_extendqisi2
 3296              	.LVL207:
 3297 0008 3421     		movs	r1, #52
 3298 000a 0622     		movs	r2, #6
 3299 000c FFF7FEFF 		bl	I2CWriteBit
 3300              	.LVL208:
 3301 0010 08BD     		pop	{r3, pc}
 3302              	.L369:
 3303 0012 00BF     		.align	2
 3304              	.L368:
 3305 0014 00000000 		.word	devAddr
 3306              		.cfi_endproc
 3307              	.LFE85:
 3308              		.size	MPU9250_setSlave4InterruptEnabled, .-MPU9250_setSlave4InterruptEnabled
 3309              		.section	.text.MPU9250_getSlave4WriteMode,"ax",%progbits
 3310              		.align	2
 3311              		.global	MPU9250_getSlave4WriteMode
 3312              		.thumb
 3313              		.thumb_func
 3314              		.type	MPU9250_getSlave4WriteMode, %function
 3315              	MPU9250_getSlave4WriteMode:
 3316              	.LFB86:
1166:mpu_9250.c    **** }
ARM GAS  C:\Users\hima\AppData\Local\Temp\ccR4vqcc.s 			page 80


1167:mpu_9250.c    **** /** Get write mode for Slave 4.
1168:mpu_9250.c    ****  * When set to 1, the transaction will read or write data only. When cleared to
1169:mpu_9250.c    ****  * 0, the transaction will write a register address prior to reading or writing
1170:mpu_9250.c    ****  * data. This should equal 0 when specifying the register address within the
1171:mpu_9250.c    ****  * Slave device to/from which the ensuing data transaction will take place.
1172:mpu_9250.c    ****  *
1173:mpu_9250.c    ****  * @return Current write mode for Slave 4 (0 = register address + data, 1 = data only)
1174:mpu_9250.c    ****  * @see MPU9250_RA_I2C_SLV4_CTRL
1175:mpu_9250.c    ****  */
1176:mpu_9250.c    **** bool MPU9250_getSlave4WriteMode() {
 3317              		.loc 1 1176 0
 3318              		.cfi_startproc
 3319              		@ args = 0, pretend = 0, frame = 0
 3320              		@ frame_needed = 0, uses_anonymous_args = 0
 3321 0000 10B5     		push	{r4, lr}
 3322              		.cfi_def_cfa_offset 8
 3323              		.cfi_offset 4, -8
 3324              		.cfi_offset 14, -4
1177:mpu_9250.c    ****     I2CReadBit(devAddr, MPU9250_RA_I2C_SLV4_CTRL, I2C_MPU9250_I2C_SLV4_REG_DIS_BIT, buffer);
 3325              		.loc 1 1177 0
 3326 0002 064C     		ldr	r4, .L372
 3327 0004 064B     		ldr	r3, .L372+4
 3328 0006 1878     		ldrb	r0, [r3]	@ zero_extendqisi2
 3329 0008 3421     		movs	r1, #52
 3330 000a 0522     		movs	r2, #5
 3331 000c 2346     		mov	r3, r4
 3332 000e FFF7FEFF 		bl	I2CReadBit
 3333              	.LVL209:
1178:mpu_9250.c    ****     return buffer[0];
 3334              		.loc 1 1178 0
 3335 0012 2078     		ldrb	r0, [r4]	@ zero_extendqisi2
1179:mpu_9250.c    **** }
 3336              		.loc 1 1179 0
 3337 0014 0030     		adds	r0, r0, #0
 3338 0016 18BF     		it	ne
 3339 0018 0120     		movne	r0, #1
 3340 001a 10BD     		pop	{r4, pc}
 3341              	.L373:
 3342              		.align	2
 3343              	.L372:
 3344 001c 00000000 		.word	buffer
 3345 0020 00000000 		.word	devAddr
 3346              		.cfi_endproc
 3347              	.LFE86:
 3348              		.size	MPU9250_getSlave4WriteMode, .-MPU9250_getSlave4WriteMode
 3349              		.section	.text.MPU9250_setSlave4WriteMode,"ax",%progbits
 3350              		.align	2
 3351              		.global	MPU9250_setSlave4WriteMode
 3352              		.thumb
 3353              		.thumb_func
 3354              		.type	MPU9250_setSlave4WriteMode, %function
 3355              	MPU9250_setSlave4WriteMode:
 3356              	.LFB87:
1180:mpu_9250.c    **** /** Set write mode for the Slave 4.
1181:mpu_9250.c    ****  * @param mode New write mode for Slave 4 (0 = register address + data, 1 = data only)
1182:mpu_9250.c    ****  * @see getSlave4WriteMode()
1183:mpu_9250.c    ****  * @see MPU9250_RA_I2C_SLV4_CTRL
ARM GAS  C:\Users\hima\AppData\Local\Temp\ccR4vqcc.s 			page 81


1184:mpu_9250.c    ****  */
1185:mpu_9250.c    **** void MPU9250_setSlave4WriteMode(bool mode) {
 3357              		.loc 1 1185 0
 3358              		.cfi_startproc
 3359              		@ args = 0, pretend = 0, frame = 0
 3360              		@ frame_needed = 0, uses_anonymous_args = 0
 3361              	.LVL210:
 3362 0000 08B5     		push	{r3, lr}
 3363              		.cfi_def_cfa_offset 8
 3364              		.cfi_offset 3, -8
 3365              		.cfi_offset 14, -4
 3366 0002 0346     		mov	r3, r0
1186:mpu_9250.c    ****     I2CWriteBit(devAddr, MPU9250_RA_I2C_SLV4_CTRL, I2C_MPU9250_I2C_SLV4_REG_DIS_BIT, mode);
 3367              		.loc 1 1186 0
 3368 0004 034A     		ldr	r2, .L376
 3369 0006 1078     		ldrb	r0, [r2]	@ zero_extendqisi2
 3370              	.LVL211:
 3371 0008 3421     		movs	r1, #52
 3372 000a 0522     		movs	r2, #5
 3373 000c FFF7FEFF 		bl	I2CWriteBit
 3374              	.LVL212:
 3375 0010 08BD     		pop	{r3, pc}
 3376              	.L377:
 3377 0012 00BF     		.align	2
 3378              	.L376:
 3379 0014 00000000 		.word	devAddr
 3380              		.cfi_endproc
 3381              	.LFE87:
 3382              		.size	MPU9250_setSlave4WriteMode, .-MPU9250_setSlave4WriteMode
 3383              		.section	.text.MPU9250_getSlave4MasterDelay,"ax",%progbits
 3384              		.align	2
 3385              		.global	MPU9250_getSlave4MasterDelay
 3386              		.thumb
 3387              		.thumb_func
 3388              		.type	MPU9250_getSlave4MasterDelay, %function
 3389              	MPU9250_getSlave4MasterDelay:
 3390              	.LFB88:
1187:mpu_9250.c    **** }
1188:mpu_9250.c    **** /** Get Slave 4 master delay value.
1189:mpu_9250.c    ****  * This configures the reduced access rate of I2C slaves relative to the Sample
1190:mpu_9250.c    ****  * Rate. When a slave's access rate is decreased relative to the Sample Rate,
1191:mpu_9250.c    ****  * the slave is accessed every:
1192:mpu_9250.c    ****  *
1193:mpu_9250.c    ****  *     1 / (1 + I2C_MST_DLY) samples
1194:mpu_9250.c    ****  *
1195:mpu_9250.c    ****  * This base Sample Rate in turn is determined by SMPLRT_DIV (register 25) and
1196:mpu_9250.c    ****  * DLPF_CFG (register 26). Whether a slave's access rate is reduced relative to
1197:mpu_9250.c    ****  * the Sample Rate is determined by I2C_MST_DELAY_CTRL (register 103). For
1198:mpu_9250.c    ****  * further information regarding the Sample Rate, please refer to register 25.
1199:mpu_9250.c    ****  *
1200:mpu_9250.c    ****  * @return Current Slave 4 master delay value
1201:mpu_9250.c    ****  * @see MPU9250_RA_I2C_SLV4_CTRL
1202:mpu_9250.c    ****  */
1203:mpu_9250.c    **** uint8_t MPU9250_getSlave4MasterDelay() {
 3391              		.loc 1 1203 0
 3392              		.cfi_startproc
 3393              		@ args = 0, pretend = 0, frame = 0
ARM GAS  C:\Users\hima\AppData\Local\Temp\ccR4vqcc.s 			page 82


 3394              		@ frame_needed = 0, uses_anonymous_args = 0
 3395 0000 10B5     		push	{r4, lr}
 3396              		.cfi_def_cfa_offset 8
 3397              		.cfi_offset 4, -8
 3398              		.cfi_offset 14, -4
 3399 0002 82B0     		sub	sp, sp, #8
 3400              		.cfi_def_cfa_offset 16
1204:mpu_9250.c    ****     I2CReadBits(devAddr, MPU9250_RA_I2C_SLV4_CTRL, I2C_MPU9250_I2C_SLV4_MST_DLY_BIT, I2C_MPU9250_I2
 3401              		.loc 1 1204 0
 3402 0004 054B     		ldr	r3, .L380
 3403 0006 1878     		ldrb	r0, [r3]	@ zero_extendqisi2
 3404 0008 054C     		ldr	r4, .L380+4
 3405 000a 0094     		str	r4, [sp]
 3406 000c 3421     		movs	r1, #52
 3407 000e 0422     		movs	r2, #4
 3408 0010 0523     		movs	r3, #5
 3409 0012 FFF7FEFF 		bl	I2CReadBits
 3410              	.LVL213:
1205:mpu_9250.c    ****     return buffer[0];
1206:mpu_9250.c    **** }
 3411              		.loc 1 1206 0
 3412 0016 2078     		ldrb	r0, [r4]	@ zero_extendqisi2
 3413 0018 02B0     		add	sp, sp, #8
 3414              		.cfi_def_cfa_offset 8
 3415              		@ sp needed
 3416 001a 10BD     		pop	{r4, pc}
 3417              	.L381:
 3418              		.align	2
 3419              	.L380:
 3420 001c 00000000 		.word	devAddr
 3421 0020 00000000 		.word	buffer
 3422              		.cfi_endproc
 3423              	.LFE88:
 3424              		.size	MPU9250_getSlave4MasterDelay, .-MPU9250_getSlave4MasterDelay
 3425              		.section	.text.MPU9250_setSlave4MasterDelay,"ax",%progbits
 3426              		.align	2
 3427              		.global	MPU9250_setSlave4MasterDelay
 3428              		.thumb
 3429              		.thumb_func
 3430              		.type	MPU9250_setSlave4MasterDelay, %function
 3431              	MPU9250_setSlave4MasterDelay:
 3432              	.LFB89:
1207:mpu_9250.c    **** /** Set Slave 4 master delay value.
1208:mpu_9250.c    ****  * @param delay New Slave 4 master delay value
1209:mpu_9250.c    ****  * @see getSlave4MasterDelay()
1210:mpu_9250.c    ****  * @see MPU9250_RA_I2C_SLV4_CTRL
1211:mpu_9250.c    ****  */
1212:mpu_9250.c    **** void MPU9250_setSlave4MasterDelay(uint8_t delay) {
 3433              		.loc 1 1212 0
 3434              		.cfi_startproc
 3435              		@ args = 0, pretend = 0, frame = 0
 3436              		@ frame_needed = 0, uses_anonymous_args = 0
 3437              	.LVL214:
 3438 0000 00B5     		push	{lr}
 3439              		.cfi_def_cfa_offset 4
 3440              		.cfi_offset 14, -4
 3441 0002 83B0     		sub	sp, sp, #12
ARM GAS  C:\Users\hima\AppData\Local\Temp\ccR4vqcc.s 			page 83


 3442              		.cfi_def_cfa_offset 16
1213:mpu_9250.c    ****     I2CWriteBits(devAddr, MPU9250_RA_I2C_SLV4_CTRL, I2C_MPU9250_I2C_SLV4_MST_DLY_BIT, I2C_MPU9250_I
 3443              		.loc 1 1213 0
 3444 0004 054B     		ldr	r3, .L384
 3445 0006 1B78     		ldrb	r3, [r3]	@ zero_extendqisi2
 3446 0008 0090     		str	r0, [sp]
 3447 000a 1846     		mov	r0, r3
 3448              	.LVL215:
 3449 000c 3421     		movs	r1, #52
 3450 000e 0422     		movs	r2, #4
 3451 0010 0523     		movs	r3, #5
 3452 0012 FFF7FEFF 		bl	I2CWriteBits
 3453              	.LVL216:
1214:mpu_9250.c    **** }
 3454              		.loc 1 1214 0
 3455 0016 03B0     		add	sp, sp, #12
 3456              		.cfi_def_cfa_offset 4
 3457              		@ sp needed
 3458 0018 5DF804FB 		ldr	pc, [sp], #4
 3459              	.L385:
 3460              		.align	2
 3461              	.L384:
 3462 001c 00000000 		.word	devAddr
 3463              		.cfi_endproc
 3464              	.LFE89:
 3465              		.size	MPU9250_setSlave4MasterDelay, .-MPU9250_setSlave4MasterDelay
 3466              		.section	.text.MPU9250_getSlate4InputByte,"ax",%progbits
 3467              		.align	2
 3468              		.global	MPU9250_getSlate4InputByte
 3469              		.thumb
 3470              		.thumb_func
 3471              		.type	MPU9250_getSlate4InputByte, %function
 3472              	MPU9250_getSlate4InputByte:
 3473              	.LFB90:
1215:mpu_9250.c    **** /** Get last available byte read from Slave 4.
1216:mpu_9250.c    ****  * This register stores the data read from Slave 4. This field is populated
1217:mpu_9250.c    ****  * after a read transaction.
1218:mpu_9250.c    ****  * @return Last available byte read from to Slave 4
1219:mpu_9250.c    ****  * @see MPU9250_RA_I2C_SLV4_DI
1220:mpu_9250.c    ****  */
1221:mpu_9250.c    **** uint8_t MPU9250_getSlate4InputByte() {
 3474              		.loc 1 1221 0
 3475              		.cfi_startproc
 3476              		@ args = 0, pretend = 0, frame = 0
 3477              		@ frame_needed = 0, uses_anonymous_args = 0
 3478 0000 10B5     		push	{r4, lr}
 3479              		.cfi_def_cfa_offset 8
 3480              		.cfi_offset 4, -8
 3481              		.cfi_offset 14, -4
1222:mpu_9250.c    ****     I2CReadByte(devAddr, MPU9250_RA_I2C_SLV4_DI, buffer);
 3482              		.loc 1 1222 0
 3483 0002 044C     		ldr	r4, .L388
 3484 0004 044B     		ldr	r3, .L388+4
 3485 0006 1878     		ldrb	r0, [r3]	@ zero_extendqisi2
 3486 0008 3521     		movs	r1, #53
 3487 000a 2246     		mov	r2, r4
 3488 000c FFF7FEFF 		bl	I2CReadByte
ARM GAS  C:\Users\hima\AppData\Local\Temp\ccR4vqcc.s 			page 84


 3489              	.LVL217:
1223:mpu_9250.c    ****     return buffer[0];
1224:mpu_9250.c    **** }
 3490              		.loc 1 1224 0
 3491 0010 2078     		ldrb	r0, [r4]	@ zero_extendqisi2
 3492 0012 10BD     		pop	{r4, pc}
 3493              	.L389:
 3494              		.align	2
 3495              	.L388:
 3496 0014 00000000 		.word	buffer
 3497 0018 00000000 		.word	devAddr
 3498              		.cfi_endproc
 3499              	.LFE90:
 3500              		.size	MPU9250_getSlate4InputByte, .-MPU9250_getSlate4InputByte
 3501              		.section	.text.MPU9250_getPassthroughStatus,"ax",%progbits
 3502              		.align	2
 3503              		.global	MPU9250_getPassthroughStatus
 3504              		.thumb
 3505              		.thumb_func
 3506              		.type	MPU9250_getPassthroughStatus, %function
 3507              	MPU9250_getPassthroughStatus:
 3508              	.LFB91:
1225:mpu_9250.c    **** 
1226:mpu_9250.c    **** // I2C_MST_STATUS register
1227:mpu_9250.c    **** 
1228:mpu_9250.c    **** /** Get FSYNC interrupt status.
1229:mpu_9250.c    ****  * This bit reflects the status of the FSYNC interrupt from an external device
1230:mpu_9250.c    ****  * into the MPU-60X0. This is used as a way to pass an external interrupt
1231:mpu_9250.c    ****  * through the MPU-60X0 to the host application processor. When set to 1, this
1232:mpu_9250.c    ****  * bit will cause an interrupt if FSYNC_INT_EN is asserted in INT_PIN_CFG
1233:mpu_9250.c    ****  * (Register 55).
1234:mpu_9250.c    ****  * @return FSYNC interrupt status
1235:mpu_9250.c    ****  * @see MPU9250_RA_I2C_MST_STATUS
1236:mpu_9250.c    ****  */
1237:mpu_9250.c    **** bool MPU9250_getPassthroughStatus() {
 3509              		.loc 1 1237 0
 3510              		.cfi_startproc
 3511              		@ args = 0, pretend = 0, frame = 0
 3512              		@ frame_needed = 0, uses_anonymous_args = 0
 3513 0000 10B5     		push	{r4, lr}
 3514              		.cfi_def_cfa_offset 8
 3515              		.cfi_offset 4, -8
 3516              		.cfi_offset 14, -4
1238:mpu_9250.c    ****     I2CReadBit(devAddr, MPU9250_RA_I2C_MST_STATUS, MPU9250_MST_PASS_THROUGH_BIT, buffer);
 3517              		.loc 1 1238 0
 3518 0002 064C     		ldr	r4, .L392
 3519 0004 064B     		ldr	r3, .L392+4
 3520 0006 1878     		ldrb	r0, [r3]	@ zero_extendqisi2
 3521 0008 3621     		movs	r1, #54
 3522 000a 0722     		movs	r2, #7
 3523 000c 2346     		mov	r3, r4
 3524 000e FFF7FEFF 		bl	I2CReadBit
 3525              	.LVL218:
1239:mpu_9250.c    ****     return buffer[0];
 3526              		.loc 1 1239 0
 3527 0012 2078     		ldrb	r0, [r4]	@ zero_extendqisi2
1240:mpu_9250.c    **** }
ARM GAS  C:\Users\hima\AppData\Local\Temp\ccR4vqcc.s 			page 85


 3528              		.loc 1 1240 0
 3529 0014 0030     		adds	r0, r0, #0
 3530 0016 18BF     		it	ne
 3531 0018 0120     		movne	r0, #1
 3532 001a 10BD     		pop	{r4, pc}
 3533              	.L393:
 3534              		.align	2
 3535              	.L392:
 3536 001c 00000000 		.word	buffer
 3537 0020 00000000 		.word	devAddr
 3538              		.cfi_endproc
 3539              	.LFE91:
 3540              		.size	MPU9250_getPassthroughStatus, .-MPU9250_getPassthroughStatus
 3541              		.section	.text.MPU9250_getSlave4IsDone,"ax",%progbits
 3542              		.align	2
 3543              		.global	MPU9250_getSlave4IsDone
 3544              		.thumb
 3545              		.thumb_func
 3546              		.type	MPU9250_getSlave4IsDone, %function
 3547              	MPU9250_getSlave4IsDone:
 3548              	.LFB92:
1241:mpu_9250.c    **** /** Get Slave 4 transaction done status.
1242:mpu_9250.c    ****  * Automatically sets to 1 when a Slave 4 transaction has completed. This
1243:mpu_9250.c    ****  * triggers an interrupt if the I2C_MST_INT_EN bit in the INT_ENABLE register
1244:mpu_9250.c    ****  * (Register 56) is asserted and if the SLV_4_DONE_INT bit is asserted in the
1245:mpu_9250.c    ****  * I2C_SLV4_CTRL register (Register 52).
1246:mpu_9250.c    ****  * @return Slave 4 transaction done status
1247:mpu_9250.c    ****  * @see MPU9250_RA_I2C_MST_STATUS
1248:mpu_9250.c    ****  */
1249:mpu_9250.c    **** bool MPU9250_getSlave4IsDone() {
 3549              		.loc 1 1249 0
 3550              		.cfi_startproc
 3551              		@ args = 0, pretend = 0, frame = 0
 3552              		@ frame_needed = 0, uses_anonymous_args = 0
 3553 0000 10B5     		push	{r4, lr}
 3554              		.cfi_def_cfa_offset 8
 3555              		.cfi_offset 4, -8
 3556              		.cfi_offset 14, -4
1250:mpu_9250.c    ****     I2CReadBit(devAddr, MPU9250_RA_I2C_MST_STATUS, MPU9250_MST_I2C_SLV4_DONE_BIT, buffer);
 3557              		.loc 1 1250 0
 3558 0002 064C     		ldr	r4, .L396
 3559 0004 064B     		ldr	r3, .L396+4
 3560 0006 1878     		ldrb	r0, [r3]	@ zero_extendqisi2
 3561 0008 3621     		movs	r1, #54
 3562 000a 0622     		movs	r2, #6
 3563 000c 2346     		mov	r3, r4
 3564 000e FFF7FEFF 		bl	I2CReadBit
 3565              	.LVL219:
1251:mpu_9250.c    ****     return buffer[0];
 3566              		.loc 1 1251 0
 3567 0012 2078     		ldrb	r0, [r4]	@ zero_extendqisi2
1252:mpu_9250.c    **** }
 3568              		.loc 1 1252 0
 3569 0014 0030     		adds	r0, r0, #0
 3570 0016 18BF     		it	ne
 3571 0018 0120     		movne	r0, #1
 3572 001a 10BD     		pop	{r4, pc}
ARM GAS  C:\Users\hima\AppData\Local\Temp\ccR4vqcc.s 			page 86


 3573              	.L397:
 3574              		.align	2
 3575              	.L396:
 3576 001c 00000000 		.word	buffer
 3577 0020 00000000 		.word	devAddr
 3578              		.cfi_endproc
 3579              	.LFE92:
 3580              		.size	MPU9250_getSlave4IsDone, .-MPU9250_getSlave4IsDone
 3581              		.section	.text.MPU9250_getLostArbitration,"ax",%progbits
 3582              		.align	2
 3583              		.global	MPU9250_getLostArbitration
 3584              		.thumb
 3585              		.thumb_func
 3586              		.type	MPU9250_getLostArbitration, %function
 3587              	MPU9250_getLostArbitration:
 3588              	.LFB93:
1253:mpu_9250.c    **** /** Get master arbitration lost status.
1254:mpu_9250.c    ****  * This bit automatically sets to 1 when the I2C Master has lost arbitration of
1255:mpu_9250.c    ****  * the auxiliary I2C bus (an error condition). This triggers an interrupt if the
1256:mpu_9250.c    ****  * I2C_MST_INT_EN bit in the INT_ENABLE register (Register 56) is asserted.
1257:mpu_9250.c    ****  * @return Master arbitration lost status
1258:mpu_9250.c    ****  * @see MPU9250_RA_I2C_MST_STATUS
1259:mpu_9250.c    ****  */
1260:mpu_9250.c    **** bool MPU9250_getLostArbitration() {
 3589              		.loc 1 1260 0
 3590              		.cfi_startproc
 3591              		@ args = 0, pretend = 0, frame = 0
 3592              		@ frame_needed = 0, uses_anonymous_args = 0
 3593 0000 10B5     		push	{r4, lr}
 3594              		.cfi_def_cfa_offset 8
 3595              		.cfi_offset 4, -8
 3596              		.cfi_offset 14, -4
1261:mpu_9250.c    ****     I2CReadBit(devAddr, MPU9250_RA_I2C_MST_STATUS, MPU9250_MST_I2C_LOST_ARB_BIT, buffer);
 3597              		.loc 1 1261 0
 3598 0002 064C     		ldr	r4, .L400
 3599 0004 064B     		ldr	r3, .L400+4
 3600 0006 1878     		ldrb	r0, [r3]	@ zero_extendqisi2
 3601 0008 3621     		movs	r1, #54
 3602 000a 0522     		movs	r2, #5
 3603 000c 2346     		mov	r3, r4
 3604 000e FFF7FEFF 		bl	I2CReadBit
 3605              	.LVL220:
1262:mpu_9250.c    ****     return buffer[0];
 3606              		.loc 1 1262 0
 3607 0012 2078     		ldrb	r0, [r4]	@ zero_extendqisi2
1263:mpu_9250.c    **** }
 3608              		.loc 1 1263 0
 3609 0014 0030     		adds	r0, r0, #0
 3610 0016 18BF     		it	ne
 3611 0018 0120     		movne	r0, #1
 3612 001a 10BD     		pop	{r4, pc}
 3613              	.L401:
 3614              		.align	2
 3615              	.L400:
 3616 001c 00000000 		.word	buffer
 3617 0020 00000000 		.word	devAddr
 3618              		.cfi_endproc
ARM GAS  C:\Users\hima\AppData\Local\Temp\ccR4vqcc.s 			page 87


 3619              	.LFE93:
 3620              		.size	MPU9250_getLostArbitration, .-MPU9250_getLostArbitration
 3621              		.section	.text.MPU9250_getSlave4Nack,"ax",%progbits
 3622              		.align	2
 3623              		.global	MPU9250_getSlave4Nack
 3624              		.thumb
 3625              		.thumb_func
 3626              		.type	MPU9250_getSlave4Nack, %function
 3627              	MPU9250_getSlave4Nack:
 3628              	.LFB94:
1264:mpu_9250.c    **** /** Get Slave 4 NACK status.
1265:mpu_9250.c    ****  * This bit automatically sets to 1 when the I2C Master receives a NACK in a
1266:mpu_9250.c    ****  * transaction with Slave 4. This triggers an interrupt if the I2C_MST_INT_EN
1267:mpu_9250.c    ****  * bit in the INT_ENABLE register (Register 56) is asserted.
1268:mpu_9250.c    ****  * @return Slave 4 NACK interrupt status
1269:mpu_9250.c    ****  * @see MPU9250_RA_I2C_MST_STATUS
1270:mpu_9250.c    ****  */
1271:mpu_9250.c    **** bool MPU9250_getSlave4Nack() {
 3629              		.loc 1 1271 0
 3630              		.cfi_startproc
 3631              		@ args = 0, pretend = 0, frame = 0
 3632              		@ frame_needed = 0, uses_anonymous_args = 0
 3633 0000 10B5     		push	{r4, lr}
 3634              		.cfi_def_cfa_offset 8
 3635              		.cfi_offset 4, -8
 3636              		.cfi_offset 14, -4
1272:mpu_9250.c    ****     I2CReadBit(devAddr, MPU9250_RA_I2C_MST_STATUS, MPU9250_MST_I2C_SLV4_NACK_BIT, buffer);
 3637              		.loc 1 1272 0
 3638 0002 064C     		ldr	r4, .L404
 3639 0004 064B     		ldr	r3, .L404+4
 3640 0006 1878     		ldrb	r0, [r3]	@ zero_extendqisi2
 3641 0008 3621     		movs	r1, #54
 3642 000a 0422     		movs	r2, #4
 3643 000c 2346     		mov	r3, r4
 3644 000e FFF7FEFF 		bl	I2CReadBit
 3645              	.LVL221:
1273:mpu_9250.c    ****     return buffer[0];
 3646              		.loc 1 1273 0
 3647 0012 2078     		ldrb	r0, [r4]	@ zero_extendqisi2
1274:mpu_9250.c    **** }
 3648              		.loc 1 1274 0
 3649 0014 0030     		adds	r0, r0, #0
 3650 0016 18BF     		it	ne
 3651 0018 0120     		movne	r0, #1
 3652 001a 10BD     		pop	{r4, pc}
 3653              	.L405:
 3654              		.align	2
 3655              	.L404:
 3656 001c 00000000 		.word	buffer
 3657 0020 00000000 		.word	devAddr
 3658              		.cfi_endproc
 3659              	.LFE94:
 3660              		.size	MPU9250_getSlave4Nack, .-MPU9250_getSlave4Nack
 3661              		.section	.text.MPU9250_getSlave3Nack,"ax",%progbits
 3662              		.align	2
 3663              		.global	MPU9250_getSlave3Nack
 3664              		.thumb
ARM GAS  C:\Users\hima\AppData\Local\Temp\ccR4vqcc.s 			page 88


 3665              		.thumb_func
 3666              		.type	MPU9250_getSlave3Nack, %function
 3667              	MPU9250_getSlave3Nack:
 3668              	.LFB95:
1275:mpu_9250.c    **** /** Get Slave 3 NACK status.
1276:mpu_9250.c    ****  * This bit automatically sets to 1 when the I2C Master receives a NACK in a
1277:mpu_9250.c    ****  * transaction with Slave 3. This triggers an interrupt if the I2C_MST_INT_EN
1278:mpu_9250.c    ****  * bit in the INT_ENABLE register (Register 56) is asserted.
1279:mpu_9250.c    ****  * @return Slave 3 NACK interrupt status
1280:mpu_9250.c    ****  * @see MPU9250_RA_I2C_MST_STATUS
1281:mpu_9250.c    ****  */
1282:mpu_9250.c    **** bool MPU9250_getSlave3Nack() {
 3669              		.loc 1 1282 0
 3670              		.cfi_startproc
 3671              		@ args = 0, pretend = 0, frame = 0
 3672              		@ frame_needed = 0, uses_anonymous_args = 0
 3673 0000 10B5     		push	{r4, lr}
 3674              		.cfi_def_cfa_offset 8
 3675              		.cfi_offset 4, -8
 3676              		.cfi_offset 14, -4
1283:mpu_9250.c    ****     I2CReadBit(devAddr, MPU9250_RA_I2C_MST_STATUS, MPU9250_MST_I2C_SLV3_NACK_BIT, buffer);
 3677              		.loc 1 1283 0
 3678 0002 064C     		ldr	r4, .L408
 3679 0004 064B     		ldr	r3, .L408+4
 3680 0006 1878     		ldrb	r0, [r3]	@ zero_extendqisi2
 3681 0008 3621     		movs	r1, #54
 3682 000a 0322     		movs	r2, #3
 3683 000c 2346     		mov	r3, r4
 3684 000e FFF7FEFF 		bl	I2CReadBit
 3685              	.LVL222:
1284:mpu_9250.c    ****     return buffer[0];
 3686              		.loc 1 1284 0
 3687 0012 2078     		ldrb	r0, [r4]	@ zero_extendqisi2
1285:mpu_9250.c    **** }
 3688              		.loc 1 1285 0
 3689 0014 0030     		adds	r0, r0, #0
 3690 0016 18BF     		it	ne
 3691 0018 0120     		movne	r0, #1
 3692 001a 10BD     		pop	{r4, pc}
 3693              	.L409:
 3694              		.align	2
 3695              	.L408:
 3696 001c 00000000 		.word	buffer
 3697 0020 00000000 		.word	devAddr
 3698              		.cfi_endproc
 3699              	.LFE95:
 3700              		.size	MPU9250_getSlave3Nack, .-MPU9250_getSlave3Nack
 3701              		.section	.text.MPU9250_getSlave2Nack,"ax",%progbits
 3702              		.align	2
 3703              		.global	MPU9250_getSlave2Nack
 3704              		.thumb
 3705              		.thumb_func
 3706              		.type	MPU9250_getSlave2Nack, %function
 3707              	MPU9250_getSlave2Nack:
 3708              	.LFB96:
1286:mpu_9250.c    **** /** Get Slave 2 NACK status.
1287:mpu_9250.c    ****  * This bit automatically sets to 1 when the I2C Master receives a NACK in a
ARM GAS  C:\Users\hima\AppData\Local\Temp\ccR4vqcc.s 			page 89


1288:mpu_9250.c    ****  * transaction with Slave 2. This triggers an interrupt if the I2C_MST_INT_EN
1289:mpu_9250.c    ****  * bit in the INT_ENABLE register (Register 56) is asserted.
1290:mpu_9250.c    ****  * @return Slave 2 NACK interrupt status
1291:mpu_9250.c    ****  * @see MPU9250_RA_I2C_MST_STATUS
1292:mpu_9250.c    ****  */
1293:mpu_9250.c    **** bool MPU9250_getSlave2Nack() {
 3709              		.loc 1 1293 0
 3710              		.cfi_startproc
 3711              		@ args = 0, pretend = 0, frame = 0
 3712              		@ frame_needed = 0, uses_anonymous_args = 0
 3713 0000 10B5     		push	{r4, lr}
 3714              		.cfi_def_cfa_offset 8
 3715              		.cfi_offset 4, -8
 3716              		.cfi_offset 14, -4
1294:mpu_9250.c    ****     I2CReadBit(devAddr, MPU9250_RA_I2C_MST_STATUS, MPU9250_MST_I2C_SLV2_NACK_BIT, buffer);
 3717              		.loc 1 1294 0
 3718 0002 064C     		ldr	r4, .L412
 3719 0004 064B     		ldr	r3, .L412+4
 3720 0006 1878     		ldrb	r0, [r3]	@ zero_extendqisi2
 3721 0008 3621     		movs	r1, #54
 3722 000a 0222     		movs	r2, #2
 3723 000c 2346     		mov	r3, r4
 3724 000e FFF7FEFF 		bl	I2CReadBit
 3725              	.LVL223:
1295:mpu_9250.c    ****     return buffer[0];
 3726              		.loc 1 1295 0
 3727 0012 2078     		ldrb	r0, [r4]	@ zero_extendqisi2
1296:mpu_9250.c    **** }
 3728              		.loc 1 1296 0
 3729 0014 0030     		adds	r0, r0, #0
 3730 0016 18BF     		it	ne
 3731 0018 0120     		movne	r0, #1
 3732 001a 10BD     		pop	{r4, pc}
 3733              	.L413:
 3734              		.align	2
 3735              	.L412:
 3736 001c 00000000 		.word	buffer
 3737 0020 00000000 		.word	devAddr
 3738              		.cfi_endproc
 3739              	.LFE96:
 3740              		.size	MPU9250_getSlave2Nack, .-MPU9250_getSlave2Nack
 3741              		.section	.text.MPU9250_getSlave1Nack,"ax",%progbits
 3742              		.align	2
 3743              		.global	MPU9250_getSlave1Nack
 3744              		.thumb
 3745              		.thumb_func
 3746              		.type	MPU9250_getSlave1Nack, %function
 3747              	MPU9250_getSlave1Nack:
 3748              	.LFB97:
1297:mpu_9250.c    **** /** Get Slave 1 NACK status.
1298:mpu_9250.c    ****  * This bit automatically sets to 1 when the I2C Master receives a NACK in a
1299:mpu_9250.c    ****  * transaction with Slave 1. This triggers an interrupt if the I2C_MST_INT_EN
1300:mpu_9250.c    ****  * bit in the INT_ENABLE register (Register 56) is asserted.
1301:mpu_9250.c    ****  * @return Slave 1 NACK interrupt status
1302:mpu_9250.c    ****  * @see MPU9250_RA_I2C_MST_STATUS
1303:mpu_9250.c    ****  */
1304:mpu_9250.c    **** bool MPU9250_getSlave1Nack() {
ARM GAS  C:\Users\hima\AppData\Local\Temp\ccR4vqcc.s 			page 90


 3749              		.loc 1 1304 0
 3750              		.cfi_startproc
 3751              		@ args = 0, pretend = 0, frame = 0
 3752              		@ frame_needed = 0, uses_anonymous_args = 0
 3753 0000 10B5     		push	{r4, lr}
 3754              		.cfi_def_cfa_offset 8
 3755              		.cfi_offset 4, -8
 3756              		.cfi_offset 14, -4
1305:mpu_9250.c    ****     I2CReadBit(devAddr, MPU9250_RA_I2C_MST_STATUS, MPU9250_MST_I2C_SLV1_NACK_BIT, buffer);
 3757              		.loc 1 1305 0
 3758 0002 064C     		ldr	r4, .L416
 3759 0004 064B     		ldr	r3, .L416+4
 3760 0006 1878     		ldrb	r0, [r3]	@ zero_extendqisi2
 3761 0008 3621     		movs	r1, #54
 3762 000a 0122     		movs	r2, #1
 3763 000c 2346     		mov	r3, r4
 3764 000e FFF7FEFF 		bl	I2CReadBit
 3765              	.LVL224:
1306:mpu_9250.c    ****     return buffer[0];
 3766              		.loc 1 1306 0
 3767 0012 2078     		ldrb	r0, [r4]	@ zero_extendqisi2
1307:mpu_9250.c    **** }
 3768              		.loc 1 1307 0
 3769 0014 0030     		adds	r0, r0, #0
 3770 0016 18BF     		it	ne
 3771 0018 0120     		movne	r0, #1
 3772 001a 10BD     		pop	{r4, pc}
 3773              	.L417:
 3774              		.align	2
 3775              	.L416:
 3776 001c 00000000 		.word	buffer
 3777 0020 00000000 		.word	devAddr
 3778              		.cfi_endproc
 3779              	.LFE97:
 3780              		.size	MPU9250_getSlave1Nack, .-MPU9250_getSlave1Nack
 3781              		.section	.text.MPU9250_getSlave0Nack,"ax",%progbits
 3782              		.align	2
 3783              		.global	MPU9250_getSlave0Nack
 3784              		.thumb
 3785              		.thumb_func
 3786              		.type	MPU9250_getSlave0Nack, %function
 3787              	MPU9250_getSlave0Nack:
 3788              	.LFB98:
1308:mpu_9250.c    **** /** Get Slave 0 NACK status.
1309:mpu_9250.c    ****  * This bit automatically sets to 1 when the I2C Master receives a NACK in a
1310:mpu_9250.c    ****  * transaction with Slave 0. This triggers an interrupt if the I2C_MST_INT_EN
1311:mpu_9250.c    ****  * bit in the INT_ENABLE register (Register 56) is asserted.
1312:mpu_9250.c    ****  * @return Slave 0 NACK interrupt status
1313:mpu_9250.c    ****  * @see MPU9250_RA_I2C_MST_STATUS
1314:mpu_9250.c    ****  */
1315:mpu_9250.c    **** bool MPU9250_getSlave0Nack() {
 3789              		.loc 1 1315 0
 3790              		.cfi_startproc
 3791              		@ args = 0, pretend = 0, frame = 0
 3792              		@ frame_needed = 0, uses_anonymous_args = 0
 3793 0000 10B5     		push	{r4, lr}
 3794              		.cfi_def_cfa_offset 8
ARM GAS  C:\Users\hima\AppData\Local\Temp\ccR4vqcc.s 			page 91


 3795              		.cfi_offset 4, -8
 3796              		.cfi_offset 14, -4
1316:mpu_9250.c    ****     I2CReadBit(devAddr, MPU9250_RA_I2C_MST_STATUS, MPU9250_MST_I2C_SLV0_NACK_BIT, buffer);
 3797              		.loc 1 1316 0
 3798 0002 064C     		ldr	r4, .L420
 3799 0004 064B     		ldr	r3, .L420+4
 3800 0006 1878     		ldrb	r0, [r3]	@ zero_extendqisi2
 3801 0008 3621     		movs	r1, #54
 3802 000a 0022     		movs	r2, #0
 3803 000c 2346     		mov	r3, r4
 3804 000e FFF7FEFF 		bl	I2CReadBit
 3805              	.LVL225:
1317:mpu_9250.c    ****     return buffer[0];
 3806              		.loc 1 1317 0
 3807 0012 2078     		ldrb	r0, [r4]	@ zero_extendqisi2
1318:mpu_9250.c    **** }
 3808              		.loc 1 1318 0
 3809 0014 0030     		adds	r0, r0, #0
 3810 0016 18BF     		it	ne
 3811 0018 0120     		movne	r0, #1
 3812 001a 10BD     		pop	{r4, pc}
 3813              	.L421:
 3814              		.align	2
 3815              	.L420:
 3816 001c 00000000 		.word	buffer
 3817 0020 00000000 		.word	devAddr
 3818              		.cfi_endproc
 3819              	.LFE98:
 3820              		.size	MPU9250_getSlave0Nack, .-MPU9250_getSlave0Nack
 3821              		.section	.text.MPU9250_getInterruptMode,"ax",%progbits
 3822              		.align	2
 3823              		.global	MPU9250_getInterruptMode
 3824              		.thumb
 3825              		.thumb_func
 3826              		.type	MPU9250_getInterruptMode, %function
 3827              	MPU9250_getInterruptMode:
 3828              	.LFB99:
1319:mpu_9250.c    **** 
1320:mpu_9250.c    **** // INT_PIN_CFG register
1321:mpu_9250.c    **** 
1322:mpu_9250.c    **** /** Get interrupt logic level mode.
1323:mpu_9250.c    ****  * Will be set 0 for active-high, 1 for active-low.
1324:mpu_9250.c    ****  * @return Current interrupt mode (0=active-high, 1=active-low)
1325:mpu_9250.c    ****  * @see MPU9250_RA_INT_PIN_CFG
1326:mpu_9250.c    ****  * @see MPU9250_INTCFG_INT_LEVEL_BIT
1327:mpu_9250.c    ****  */
1328:mpu_9250.c    **** bool MPU9250_getInterruptMode() {
 3829              		.loc 1 1328 0
 3830              		.cfi_startproc
 3831              		@ args = 0, pretend = 0, frame = 0
 3832              		@ frame_needed = 0, uses_anonymous_args = 0
 3833 0000 10B5     		push	{r4, lr}
 3834              		.cfi_def_cfa_offset 8
 3835              		.cfi_offset 4, -8
 3836              		.cfi_offset 14, -4
1329:mpu_9250.c    ****     I2CReadBit(devAddr, MPU9250_RA_INT_PIN_CFG, MPU9250_INTCFG_INT_LEVEL_BIT, buffer);
 3837              		.loc 1 1329 0
ARM GAS  C:\Users\hima\AppData\Local\Temp\ccR4vqcc.s 			page 92


 3838 0002 064C     		ldr	r4, .L424
 3839 0004 064B     		ldr	r3, .L424+4
 3840 0006 1878     		ldrb	r0, [r3]	@ zero_extendqisi2
 3841 0008 3721     		movs	r1, #55
 3842 000a 0722     		movs	r2, #7
 3843 000c 2346     		mov	r3, r4
 3844 000e FFF7FEFF 		bl	I2CReadBit
 3845              	.LVL226:
1330:mpu_9250.c    ****     return buffer[0];
 3846              		.loc 1 1330 0
 3847 0012 2078     		ldrb	r0, [r4]	@ zero_extendqisi2
1331:mpu_9250.c    **** }
 3848              		.loc 1 1331 0
 3849 0014 0030     		adds	r0, r0, #0
 3850 0016 18BF     		it	ne
 3851 0018 0120     		movne	r0, #1
 3852 001a 10BD     		pop	{r4, pc}
 3853              	.L425:
 3854              		.align	2
 3855              	.L424:
 3856 001c 00000000 		.word	buffer
 3857 0020 00000000 		.word	devAddr
 3858              		.cfi_endproc
 3859              	.LFE99:
 3860              		.size	MPU9250_getInterruptMode, .-MPU9250_getInterruptMode
 3861              		.section	.text.MPU9250_setInterruptMode,"ax",%progbits
 3862              		.align	2
 3863              		.global	MPU9250_setInterruptMode
 3864              		.thumb
 3865              		.thumb_func
 3866              		.type	MPU9250_setInterruptMode, %function
 3867              	MPU9250_setInterruptMode:
 3868              	.LFB100:
1332:mpu_9250.c    **** /** Set interrupt logic level mode.
1333:mpu_9250.c    ****  * @param mode New interrupt mode (0=active-high, 1=active-low)
1334:mpu_9250.c    ****  * @see getInterruptMode()
1335:mpu_9250.c    ****  * @see MPU9250_RA_INT_PIN_CFG
1336:mpu_9250.c    ****  * @see MPU9250_INTCFG_INT_LEVEL_BIT
1337:mpu_9250.c    ****  */
1338:mpu_9250.c    **** void MPU9250_setInterruptMode(bool mode) {
 3869              		.loc 1 1338 0
 3870              		.cfi_startproc
 3871              		@ args = 0, pretend = 0, frame = 0
 3872              		@ frame_needed = 0, uses_anonymous_args = 0
 3873              	.LVL227:
 3874 0000 08B5     		push	{r3, lr}
 3875              		.cfi_def_cfa_offset 8
 3876              		.cfi_offset 3, -8
 3877              		.cfi_offset 14, -4
 3878 0002 0346     		mov	r3, r0
1339:mpu_9250.c    ****    I2CWriteBit(devAddr, MPU9250_RA_INT_PIN_CFG, MPU9250_INTCFG_INT_LEVEL_BIT, mode);
 3879              		.loc 1 1339 0
 3880 0004 034A     		ldr	r2, .L428
 3881 0006 1078     		ldrb	r0, [r2]	@ zero_extendqisi2
 3882              	.LVL228:
 3883 0008 3721     		movs	r1, #55
 3884 000a 0722     		movs	r2, #7
ARM GAS  C:\Users\hima\AppData\Local\Temp\ccR4vqcc.s 			page 93


 3885 000c FFF7FEFF 		bl	I2CWriteBit
 3886              	.LVL229:
 3887 0010 08BD     		pop	{r3, pc}
 3888              	.L429:
 3889 0012 00BF     		.align	2
 3890              	.L428:
 3891 0014 00000000 		.word	devAddr
 3892              		.cfi_endproc
 3893              	.LFE100:
 3894              		.size	MPU9250_setInterruptMode, .-MPU9250_setInterruptMode
 3895              		.section	.text.MPU9250_getInterruptDrive,"ax",%progbits
 3896              		.align	2
 3897              		.global	MPU9250_getInterruptDrive
 3898              		.thumb
 3899              		.thumb_func
 3900              		.type	MPU9250_getInterruptDrive, %function
 3901              	MPU9250_getInterruptDrive:
 3902              	.LFB101:
1340:mpu_9250.c    **** }
1341:mpu_9250.c    **** /** Get interrupt drive mode.
1342:mpu_9250.c    ****  * Will be set 0 for push-pull, 1 for open-drain.
1343:mpu_9250.c    ****  * @return Current interrupt drive mode (0=push-pull, 1=open-drain)
1344:mpu_9250.c    ****  * @see MPU9250_RA_INT_PIN_CFG
1345:mpu_9250.c    ****  * @see MPU9250_INTCFG_INT_OPEN_BIT
1346:mpu_9250.c    ****  */
1347:mpu_9250.c    **** bool MPU9250_getInterruptDrive() {
 3903              		.loc 1 1347 0
