ARM GAS  C:\Users\Vishwas\AppData\Local\Temp\ccDHXqd6.s 			page 1


   1              		.syntax unified
   2              		.cpu cortex-m4
   3              		.eabi_attribute 27, 1
   4              		.fpu fpv4-sp-d16
   5              		.eabi_attribute 20, 1
   6              		.eabi_attribute 21, 1
   7              		.eabi_attribute 23, 3
   8              		.eabi_attribute 24, 1
   9              		.eabi_attribute 25, 1
  10              		.eabi_attribute 26, 1
  11              		.eabi_attribute 30, 1
  12              		.eabi_attribute 34, 1
  13              		.eabi_attribute 18, 4
  14              		.thumb
  15              		.syntax unified
  16              		.file	"system_psoc6_cm4.c"
  17              		.text
  18              	.Ltext0:
  19              		.cfi_sections	.debug_frame
  20              		.section	.text.Cy_SysIpcPipeIsrCm4,"ax",%progbits
  21              		.align	2
  22              		.global	Cy_SysIpcPipeIsrCm4
  23              		.thumb
  24              		.thumb_func
  25              		.type	Cy_SysIpcPipeIsrCm4, %function
  26              	Cy_SysIpcPipeIsrCm4:
  27              	.LFB165:
  28              		.file 1 "system_psoc6_cm4.c"
   1:system_psoc6_cm4.c **** /***************************************************************************//**
   2:system_psoc6_cm4.c **** * \file system_psoc6_cm4.c
   3:system_psoc6_cm4.c **** * \version 2.20.1
   4:system_psoc6_cm4.c **** *
   5:system_psoc6_cm4.c **** * The device system-source file.
   6:system_psoc6_cm4.c **** *
   7:system_psoc6_cm4.c **** ********************************************************************************
   8:system_psoc6_cm4.c **** * \copyright
   9:system_psoc6_cm4.c **** * Copyright 2016-2020, Cypress Semiconductor Corporation.  All rights reserved.
  10:system_psoc6_cm4.c **** * You may use this file only in accordance with the license, terms, conditions,
  11:system_psoc6_cm4.c **** * disclaimers, and limitations in the end user license agreement accompanying
  12:system_psoc6_cm4.c **** * the software package with which this file was provided.
  13:system_psoc6_cm4.c **** *******************************************************************************/
  14:system_psoc6_cm4.c **** 
  15:system_psoc6_cm4.c **** #include <stdbool.h>
  16:system_psoc6_cm4.c **** #include "system_psoc6.h"
  17:system_psoc6_cm4.c **** #include "cy_device.h"
  18:system_psoc6_cm4.c **** #include "cy_device_headers.h"
  19:system_psoc6_cm4.c **** #include "cy_syslib.h"
  20:system_psoc6_cm4.c **** #include "cy_wdt.h"
  21:system_psoc6_cm4.c **** 
  22:system_psoc6_cm4.c **** #if !defined(CY_IPC_DEFAULT_CFG_DISABLE)
  23:system_psoc6_cm4.c ****     #include "cy_ipc_sema.h"
  24:system_psoc6_cm4.c ****     #include "cy_ipc_pipe.h"
  25:system_psoc6_cm4.c ****     #include "cy_ipc_drv.h"
  26:system_psoc6_cm4.c **** 
  27:system_psoc6_cm4.c ****     #if defined(CY_DEVICE_PSOC6ABLE2)
  28:system_psoc6_cm4.c ****         #include "cy_flash.h"
  29:system_psoc6_cm4.c ****     #endif /* defined(CY_DEVICE_PSOC6ABLE2) */
ARM GAS  C:\Users\Vishwas\AppData\Local\Temp\ccDHXqd6.s 			page 2


  30:system_psoc6_cm4.c **** #endif /* !defined(CY_IPC_DEFAULT_CFG_DISABLE) */
  31:system_psoc6_cm4.c **** 
  32:system_psoc6_cm4.c **** 
  33:system_psoc6_cm4.c **** /*******************************************************************************
  34:system_psoc6_cm4.c **** * SystemCoreClockUpdate()
  35:system_psoc6_cm4.c **** *******************************************************************************/
  36:system_psoc6_cm4.c **** 
  37:system_psoc6_cm4.c **** /** Default HFClk frequency in Hz */
  38:system_psoc6_cm4.c **** #define CY_CLK_HFCLK0_FREQ_HZ_DEFAULT       (8000000UL)
  39:system_psoc6_cm4.c **** 
  40:system_psoc6_cm4.c **** /** Default PeriClk frequency in Hz */
  41:system_psoc6_cm4.c **** #define CY_CLK_PERICLK_FREQ_HZ_DEFAULT      (4000000UL)
  42:system_psoc6_cm4.c **** 
  43:system_psoc6_cm4.c **** /** Default SlowClk system core frequency in Hz */
  44:system_psoc6_cm4.c **** #define CY_CLK_SYSTEM_FREQ_HZ_DEFAULT       (8000000UL)
  45:system_psoc6_cm4.c **** 
  46:system_psoc6_cm4.c **** /** IMO frequency in Hz */
  47:system_psoc6_cm4.c **** #define CY_CLK_IMO_FREQ_HZ                  (8000000UL)
  48:system_psoc6_cm4.c **** 
  49:system_psoc6_cm4.c **** /** HVILO frequency in Hz */
  50:system_psoc6_cm4.c **** #define CY_CLK_HVILO_FREQ_HZ                (32000UL)
  51:system_psoc6_cm4.c **** 
  52:system_psoc6_cm4.c **** /** PILO frequency in Hz */
  53:system_psoc6_cm4.c **** #define CY_CLK_PILO_FREQ_HZ                 (32768UL)
  54:system_psoc6_cm4.c **** 
  55:system_psoc6_cm4.c **** /** WCO frequency in Hz */
  56:system_psoc6_cm4.c **** #define CY_CLK_WCO_FREQ_HZ                  (32768UL)
  57:system_psoc6_cm4.c **** 
  58:system_psoc6_cm4.c **** /** ALTLF frequency in Hz */
  59:system_psoc6_cm4.c **** #define CY_CLK_ALTLF_FREQ_HZ                (32768UL)
  60:system_psoc6_cm4.c **** 
  61:system_psoc6_cm4.c **** 
  62:system_psoc6_cm4.c **** /**
  63:system_psoc6_cm4.c **** * Holds the SlowClk (Cortex-M0+) or FastClk (Cortex-M4) system core clock,
  64:system_psoc6_cm4.c **** * which is the system clock frequency supplied to the SysTick timer and the
  65:system_psoc6_cm4.c **** * processor core clock.
  66:system_psoc6_cm4.c **** * This variable implements CMSIS Core global variable.
  67:system_psoc6_cm4.c **** * Refer to the [CMSIS documentation]
  68:system_psoc6_cm4.c **** * (http://www.keil.com/pack/doc/CMSIS/Core/html/group__system__init__gr.html "System and Clock Conf
  69:system_psoc6_cm4.c **** * for more details.
  70:system_psoc6_cm4.c **** * This variable can be used by debuggers to query the frequency
  71:system_psoc6_cm4.c **** * of the debug timer or to configure the trace clock speed.
  72:system_psoc6_cm4.c **** *
  73:system_psoc6_cm4.c **** * \attention Compilers must be configured to avoid removing this variable in case
  74:system_psoc6_cm4.c **** * the application program is not using it. Debugging systems require the variable
  75:system_psoc6_cm4.c **** * to be physically present in memory so that it can be examined to configure the debugger. */
  76:system_psoc6_cm4.c **** uint32_t SystemCoreClock = CY_CLK_SYSTEM_FREQ_HZ_DEFAULT;
  77:system_psoc6_cm4.c **** 
  78:system_psoc6_cm4.c **** /** Holds the HFClk0 clock frequency. Updated by \ref SystemCoreClockUpdate(). */
  79:system_psoc6_cm4.c **** uint32_t cy_Hfclk0FreqHz  = CY_CLK_HFCLK0_FREQ_HZ_DEFAULT;
  80:system_psoc6_cm4.c **** 
  81:system_psoc6_cm4.c **** /** Holds the PeriClk clock frequency. Updated by \ref SystemCoreClockUpdate(). */
  82:system_psoc6_cm4.c **** uint32_t cy_PeriClkFreqHz = CY_CLK_PERICLK_FREQ_HZ_DEFAULT;
  83:system_psoc6_cm4.c **** 
  84:system_psoc6_cm4.c **** /** Holds the Alternate high frequency clock in Hz. Updated by \ref SystemCoreClockUpdate(). */
  85:system_psoc6_cm4.c **** #if (defined (CY_IP_MXBLESS) && (CY_IP_MXBLESS == 1UL)) || defined (CY_DOXYGEN)
  86:system_psoc6_cm4.c ****     uint32_t cy_BleEcoClockFreqHz = CY_CLK_ALTHF_FREQ_HZ;
ARM GAS  C:\Users\Vishwas\AppData\Local\Temp\ccDHXqd6.s 			page 3


  87:system_psoc6_cm4.c **** #endif /* (defined (CY_IP_MXBLESS) && (CY_IP_MXBLESS == 1UL)) || defined (CY_DOXYGEN) */
  88:system_psoc6_cm4.c **** 
  89:system_psoc6_cm4.c **** /* SCB->CPACR */
  90:system_psoc6_cm4.c **** #define SCB_CPACR_CP10_CP11_ENABLE      (0xFUL << 20u)
  91:system_psoc6_cm4.c **** 
  92:system_psoc6_cm4.c **** 
  93:system_psoc6_cm4.c **** /*******************************************************************************
  94:system_psoc6_cm4.c **** * SystemInit()
  95:system_psoc6_cm4.c **** *******************************************************************************/
  96:system_psoc6_cm4.c **** 
  97:system_psoc6_cm4.c **** /* CLK_FLL_CONFIG default values */
  98:system_psoc6_cm4.c **** #define CY_FB_CLK_FLL_CONFIG_VALUE      (0x01000000u)
  99:system_psoc6_cm4.c **** #define CY_FB_CLK_FLL_CONFIG2_VALUE     (0x00020001u)
 100:system_psoc6_cm4.c **** #define CY_FB_CLK_FLL_CONFIG3_VALUE     (0x00002800u)
 101:system_psoc6_cm4.c **** #define CY_FB_CLK_FLL_CONFIG4_VALUE     (0x000000FFu)
 102:system_psoc6_cm4.c **** 
 103:system_psoc6_cm4.c **** 
 104:system_psoc6_cm4.c **** /*******************************************************************************
 105:system_psoc6_cm4.c **** * SystemCoreClockUpdate (void)
 106:system_psoc6_cm4.c **** *******************************************************************************/
 107:system_psoc6_cm4.c **** 
 108:system_psoc6_cm4.c **** /* Do not use these definitions directly in your application */
 109:system_psoc6_cm4.c **** #define CY_DELAY_MS_OVERFLOW_THRESHOLD  (0x8000u)
 110:system_psoc6_cm4.c **** #define CY_DELAY_1K_THRESHOLD           (1000u)
 111:system_psoc6_cm4.c **** #define CY_DELAY_1K_MINUS_1_THRESHOLD   (CY_DELAY_1K_THRESHOLD - 1u)
 112:system_psoc6_cm4.c **** #define CY_DELAY_1M_THRESHOLD           (1000000u)
 113:system_psoc6_cm4.c **** #define CY_DELAY_1M_MINUS_1_THRESHOLD   (CY_DELAY_1M_THRESHOLD - 1u)
 114:system_psoc6_cm4.c **** uint32_t cy_delayFreqHz   = CY_CLK_SYSTEM_FREQ_HZ_DEFAULT;
 115:system_psoc6_cm4.c **** 
 116:system_psoc6_cm4.c **** uint32_t cy_delayFreqKhz  = (CY_CLK_SYSTEM_FREQ_HZ_DEFAULT + CY_DELAY_1K_MINUS_1_THRESHOLD) /
 117:system_psoc6_cm4.c ****                             CY_DELAY_1K_THRESHOLD;
 118:system_psoc6_cm4.c **** 
 119:system_psoc6_cm4.c **** uint8_t cy_delayFreqMhz  = (uint8_t)((CY_CLK_SYSTEM_FREQ_HZ_DEFAULT + CY_DELAY_1M_MINUS_1_THRESHOLD
 120:system_psoc6_cm4.c ****                             CY_DELAY_1M_THRESHOLD);
 121:system_psoc6_cm4.c **** 
 122:system_psoc6_cm4.c **** uint32_t cy_delay32kMs    = CY_DELAY_MS_OVERFLOW_THRESHOLD *
 123:system_psoc6_cm4.c ****                             ((CY_CLK_SYSTEM_FREQ_HZ_DEFAULT + CY_DELAY_1K_MINUS_1_THRESHOLD) / CY_D
 124:system_psoc6_cm4.c **** 
 125:system_psoc6_cm4.c **** #define CY_ROOT_PATH_SRC_IMO                (0UL)
 126:system_psoc6_cm4.c **** #define CY_ROOT_PATH_SRC_EXT                (1UL)
 127:system_psoc6_cm4.c **** #if (SRSS_ECO_PRESENT == 1U)
 128:system_psoc6_cm4.c ****     #define CY_ROOT_PATH_SRC_ECO            (2UL)
 129:system_psoc6_cm4.c **** #endif /* (SRSS_ECO_PRESENT == 1U) */
 130:system_psoc6_cm4.c **** #if (SRSS_ALTHF_PRESENT == 1U)
 131:system_psoc6_cm4.c ****     #define CY_ROOT_PATH_SRC_ALTHF          (3UL)
 132:system_psoc6_cm4.c **** #endif /* (SRSS_ALTHF_PRESENT == 1U) */
 133:system_psoc6_cm4.c **** #define CY_ROOT_PATH_SRC_DSI_MUX            (4UL)
 134:system_psoc6_cm4.c **** #define CY_ROOT_PATH_SRC_DSI_MUX_HVILO      (16UL)
 135:system_psoc6_cm4.c **** #define CY_ROOT_PATH_SRC_DSI_MUX_WCO        (17UL)
 136:system_psoc6_cm4.c **** #if (SRSS_ALTLF_PRESENT == 1U)
 137:system_psoc6_cm4.c ****     #define CY_ROOT_PATH_SRC_DSI_MUX_ALTLF  (18UL)
 138:system_psoc6_cm4.c **** #endif /* (SRSS_ALTLF_PRESENT == 1U) */
 139:system_psoc6_cm4.c **** #if (SRSS_PILO_PRESENT == 1U)
 140:system_psoc6_cm4.c ****     #define CY_ROOT_PATH_SRC_DSI_MUX_PILO   (19UL)
 141:system_psoc6_cm4.c **** #endif /* (SRSS_PILO_PRESENT == 1U) */
 142:system_psoc6_cm4.c **** 
 143:system_psoc6_cm4.c **** 
ARM GAS  C:\Users\Vishwas\AppData\Local\Temp\ccDHXqd6.s 			page 4


 144:system_psoc6_cm4.c **** /*******************************************************************************
 145:system_psoc6_cm4.c **** * Function Name: SystemInit
 146:system_psoc6_cm4.c **** ****************************************************************************//**
 147:system_psoc6_cm4.c **** * \cond
 148:system_psoc6_cm4.c **** * Initializes the system:
 149:system_psoc6_cm4.c **** * - Restores FLL registers to the default state for single core devices.
 150:system_psoc6_cm4.c **** * - Unlocks and disables WDT.
 151:system_psoc6_cm4.c **** * - Calls Cy_PDL_Init() function to define the driver library.
 152:system_psoc6_cm4.c **** * - Calls the Cy_SystemInit() function, if compiled from PSoC Creator.
 153:system_psoc6_cm4.c **** * - Calls \ref SystemCoreClockUpdate().
 154:system_psoc6_cm4.c **** * \endcond
 155:system_psoc6_cm4.c **** *******************************************************************************/
 156:system_psoc6_cm4.c **** void SystemInit(void)
 157:system_psoc6_cm4.c **** {
 158:system_psoc6_cm4.c ****     Cy_PDL_Init(CY_DEVICE_CFG);
 159:system_psoc6_cm4.c **** 
 160:system_psoc6_cm4.c **** #ifdef __CM0P_PRESENT
 161:system_psoc6_cm4.c ****     #if (__CM0P_PRESENT == 0)
 162:system_psoc6_cm4.c ****         /* Restore FLL registers to the default state as they are not restored by the ROM code */
 163:system_psoc6_cm4.c ****         uint32_t copy = SRSS->CLK_FLL_CONFIG;
 164:system_psoc6_cm4.c ****         copy &= ~SRSS_CLK_FLL_CONFIG_FLL_ENABLE_Msk;
 165:system_psoc6_cm4.c ****         SRSS->CLK_FLL_CONFIG = copy;
 166:system_psoc6_cm4.c **** 
 167:system_psoc6_cm4.c ****         copy = SRSS->CLK_ROOT_SELECT[0u];
 168:system_psoc6_cm4.c ****         copy &= ~SRSS_CLK_ROOT_SELECT_ROOT_DIV_Msk; /* Set ROOT_DIV = 0*/
 169:system_psoc6_cm4.c ****         SRSS->CLK_ROOT_SELECT[0u] = copy;
 170:system_psoc6_cm4.c **** 
 171:system_psoc6_cm4.c ****         SRSS->CLK_FLL_CONFIG  = CY_FB_CLK_FLL_CONFIG_VALUE;
 172:system_psoc6_cm4.c ****         SRSS->CLK_FLL_CONFIG2 = CY_FB_CLK_FLL_CONFIG2_VALUE;
 173:system_psoc6_cm4.c ****         SRSS->CLK_FLL_CONFIG3 = CY_FB_CLK_FLL_CONFIG3_VALUE;
 174:system_psoc6_cm4.c ****         SRSS->CLK_FLL_CONFIG4 = CY_FB_CLK_FLL_CONFIG4_VALUE;
 175:system_psoc6_cm4.c ****         
 176:system_psoc6_cm4.c ****         /* Unlock and disable WDT */
 177:system_psoc6_cm4.c ****         Cy_WDT_Unlock();
 178:system_psoc6_cm4.c ****         Cy_WDT_Disable();    
 179:system_psoc6_cm4.c ****     #endif /* (__CM0P_PRESENT == 0) */
 180:system_psoc6_cm4.c **** #endif /* __CM0P_PRESENT */
 181:system_psoc6_cm4.c ****     
 182:system_psoc6_cm4.c ****     Cy_SystemInit();
 183:system_psoc6_cm4.c ****     SystemCoreClockUpdate();
 184:system_psoc6_cm4.c **** 
 185:system_psoc6_cm4.c **** #if !defined(CY_IPC_DEFAULT_CFG_DISABLE)
 186:system_psoc6_cm4.c **** 
 187:system_psoc6_cm4.c **** #ifdef __CM0P_PRESENT
 188:system_psoc6_cm4.c ****     #if (__CM0P_PRESENT == 0)
 189:system_psoc6_cm4.c ****         /* Allocate and initialize semaphores for the system operations. */
 190:system_psoc6_cm4.c ****         static uint32_t ipcSemaArray[CY_IPC_SEMA_COUNT / CY_IPC_SEMA_PER_WORD];
 191:system_psoc6_cm4.c ****         (void) Cy_IPC_Sema_Init(CY_IPC_CHAN_SEMA, CY_IPC_SEMA_COUNT, ipcSemaArray);
 192:system_psoc6_cm4.c ****     #else
 193:system_psoc6_cm4.c ****         (void) Cy_IPC_Sema_Init(CY_IPC_CHAN_SEMA, 0ul, NULL);
 194:system_psoc6_cm4.c ****     #endif /* (__CM0P_PRESENT) */
 195:system_psoc6_cm4.c **** #else
 196:system_psoc6_cm4.c ****     (void) Cy_IPC_Sema_Init(CY_IPC_CHAN_SEMA, 0ul, NULL);
 197:system_psoc6_cm4.c **** #endif /* __CM0P_PRESENT */
 198:system_psoc6_cm4.c **** 
 199:system_psoc6_cm4.c **** 
 200:system_psoc6_cm4.c ****     /********************************************************************************
ARM GAS  C:\Users\Vishwas\AppData\Local\Temp\ccDHXqd6.s 			page 5


 201:system_psoc6_cm4.c ****     *
 202:system_psoc6_cm4.c ****     * Initializes the system pipes. The system pipes are used by BLE and Flash.
 203:system_psoc6_cm4.c ****     *
 204:system_psoc6_cm4.c ****     * If the default startup file is not used, or SystemInit() is not called in your 
 205:system_psoc6_cm4.c ****     * project, call the following three functions prior to executing any flash or 
 206:system_psoc6_cm4.c ****     * EmEEPROM write or erase operation:
 207:system_psoc6_cm4.c ****     *  -# Cy_IPC_Sema_Init()
 208:system_psoc6_cm4.c ****     *  -# Cy_IPC_Pipe_Config()
 209:system_psoc6_cm4.c ****     *  -# Cy_IPC_Pipe_Init()
 210:system_psoc6_cm4.c ****     *  -# Cy_Flash_Init()
 211:system_psoc6_cm4.c ****     *
 212:system_psoc6_cm4.c ****     *******************************************************************************/
 213:system_psoc6_cm4.c ****     /* Create an array of endpoint structures */
 214:system_psoc6_cm4.c ****     static cy_stc_ipc_pipe_ep_t systemIpcPipeEpArray[CY_IPC_MAX_ENDPOINTS];
 215:system_psoc6_cm4.c **** 
 216:system_psoc6_cm4.c ****     Cy_IPC_Pipe_Config(systemIpcPipeEpArray);
 217:system_psoc6_cm4.c **** 
 218:system_psoc6_cm4.c ****     static cy_ipc_pipe_callback_ptr_t systemIpcPipeSysCbArray[CY_SYS_CYPIPE_CLIENT_CNT];
 219:system_psoc6_cm4.c **** 
 220:system_psoc6_cm4.c ****     static const cy_stc_ipc_pipe_config_t systemIpcPipeConfigCm4 =
 221:system_psoc6_cm4.c ****     {
 222:system_psoc6_cm4.c ****     /* .ep0ConfigData */
 223:system_psoc6_cm4.c ****         {
 224:system_psoc6_cm4.c ****             /* .ipcNotifierNumber    */  CY_IPC_INTR_CYPIPE_EP0,
 225:system_psoc6_cm4.c ****             /* .ipcNotifierPriority  */  CY_SYS_INTR_CYPIPE_PRIOR_EP0,
 226:system_psoc6_cm4.c ****             /* .ipcNotifierMuxNumber */  CY_SYS_INTR_CYPIPE_MUX_EP0,
 227:system_psoc6_cm4.c ****             /* .epAddress            */  CY_IPC_EP_CYPIPE_CM0_ADDR,
 228:system_psoc6_cm4.c ****             /* .epConfig             */  CY_SYS_CYPIPE_CONFIG_EP0
 229:system_psoc6_cm4.c ****         },
 230:system_psoc6_cm4.c ****     /* .ep1ConfigData */
 231:system_psoc6_cm4.c ****         {
 232:system_psoc6_cm4.c ****             /* .ipcNotifierNumber    */  CY_IPC_INTR_CYPIPE_EP1,
 233:system_psoc6_cm4.c ****             /* .ipcNotifierPriority  */  CY_SYS_INTR_CYPIPE_PRIOR_EP1,
 234:system_psoc6_cm4.c ****             /* .ipcNotifierMuxNumber */  0u,
 235:system_psoc6_cm4.c ****             /* .epAddress            */  CY_IPC_EP_CYPIPE_CM4_ADDR,
 236:system_psoc6_cm4.c ****             /* .epConfig             */  CY_SYS_CYPIPE_CONFIG_EP1
 237:system_psoc6_cm4.c ****         },
 238:system_psoc6_cm4.c ****     /* .endpointClientsCount     */  CY_SYS_CYPIPE_CLIENT_CNT,
 239:system_psoc6_cm4.c ****     /* .endpointsCallbacksArray  */  systemIpcPipeSysCbArray,
 240:system_psoc6_cm4.c ****     /* .userPipeIsrHandler       */  &Cy_SysIpcPipeIsrCm4
 241:system_psoc6_cm4.c ****     };
 242:system_psoc6_cm4.c **** 
 243:system_psoc6_cm4.c ****     if (cy_device->flashPipeRequired != 0u)
 244:system_psoc6_cm4.c ****     {
 245:system_psoc6_cm4.c ****         Cy_IPC_Pipe_Init(&systemIpcPipeConfigCm4);
 246:system_psoc6_cm4.c ****     }
 247:system_psoc6_cm4.c **** 
 248:system_psoc6_cm4.c **** #if defined(CY_DEVICE_PSOC6ABLE2)
 249:system_psoc6_cm4.c ****     Cy_Flash_Init();
 250:system_psoc6_cm4.c **** #endif /* defined(CY_DEVICE_PSOC6ABLE2) */
 251:system_psoc6_cm4.c **** 
 252:system_psoc6_cm4.c **** #endif /* !defined(CY_IPC_DEFAULT_CFG_DISABLE) */
 253:system_psoc6_cm4.c **** }
 254:system_psoc6_cm4.c **** 
 255:system_psoc6_cm4.c **** 
 256:system_psoc6_cm4.c **** /*******************************************************************************
 257:system_psoc6_cm4.c **** * Function Name: Cy_SystemInit
ARM GAS  C:\Users\Vishwas\AppData\Local\Temp\ccDHXqd6.s 			page 6


 258:system_psoc6_cm4.c **** ****************************************************************************//**
 259:system_psoc6_cm4.c **** *
 260:system_psoc6_cm4.c **** * The function is called during device startup. Once project compiled as part of
 261:system_psoc6_cm4.c **** * the PSoC Creator project, the Cy_SystemInit() function is generated by the
 262:system_psoc6_cm4.c **** * PSoC Creator.
 263:system_psoc6_cm4.c **** *
 264:system_psoc6_cm4.c **** * The function generated by PSoC Creator performs all of the necessary device
 265:system_psoc6_cm4.c **** * configuration based on the design settings.  This includes settings from the
 266:system_psoc6_cm4.c **** * Design Wide Resources (DWR) such as Clocks and Pins as well as any component
 267:system_psoc6_cm4.c **** * configuration that is necessary.
 268:system_psoc6_cm4.c **** *
 269:system_psoc6_cm4.c **** *******************************************************************************/
 270:system_psoc6_cm4.c **** __WEAK void Cy_SystemInit(void)
 271:system_psoc6_cm4.c **** {
 272:system_psoc6_cm4.c ****      /* Empty weak function. The actual implementation to be in the PSoC Creator
 273:system_psoc6_cm4.c ****       * generated strong function.
 274:system_psoc6_cm4.c ****      */
 275:system_psoc6_cm4.c **** }
 276:system_psoc6_cm4.c **** 
 277:system_psoc6_cm4.c **** 
 278:system_psoc6_cm4.c **** /*******************************************************************************
 279:system_psoc6_cm4.c **** * Function Name: SystemCoreClockUpdate
 280:system_psoc6_cm4.c **** ****************************************************************************//**
 281:system_psoc6_cm4.c **** *
 282:system_psoc6_cm4.c **** * Gets core clock frequency and updates \ref SystemCoreClock, \ref
 283:system_psoc6_cm4.c **** * cy_Hfclk0FreqHz, and \ref cy_PeriClkFreqHz.
 284:system_psoc6_cm4.c **** *
 285:system_psoc6_cm4.c **** * Updates global variables used by the \ref Cy_SysLib_Delay(), \ref
 286:system_psoc6_cm4.c **** * Cy_SysLib_DelayUs(), and \ref Cy_SysLib_DelayCycles().
 287:system_psoc6_cm4.c **** *
 288:system_psoc6_cm4.c **** *******************************************************************************/
 289:system_psoc6_cm4.c **** void SystemCoreClockUpdate (void)
 290:system_psoc6_cm4.c **** {
 291:system_psoc6_cm4.c ****     uint32_t srcFreqHz;
 292:system_psoc6_cm4.c ****     uint32_t pathFreqHz;
 293:system_psoc6_cm4.c ****     uint32_t fastClkDiv;
 294:system_psoc6_cm4.c ****     uint32_t periClkDiv;
 295:system_psoc6_cm4.c ****     uint32_t rootPath;
 296:system_psoc6_cm4.c ****     uint32_t srcClk;
 297:system_psoc6_cm4.c **** 
 298:system_psoc6_cm4.c ****     /* Get root path clock for the high-frequency clock # 0 */
 299:system_psoc6_cm4.c ****     rootPath = _FLD2VAL(SRSS_CLK_ROOT_SELECT_ROOT_MUX, SRSS->CLK_ROOT_SELECT[0u]);
 300:system_psoc6_cm4.c **** 
 301:system_psoc6_cm4.c ****     /* Get source of the root path clock */
 302:system_psoc6_cm4.c ****     srcClk = _FLD2VAL(SRSS_CLK_PATH_SELECT_PATH_MUX, SRSS->CLK_PATH_SELECT[rootPath]);
 303:system_psoc6_cm4.c **** 
 304:system_psoc6_cm4.c ****     /* Get frequency of the source */
 305:system_psoc6_cm4.c ****     switch (srcClk)
 306:system_psoc6_cm4.c ****     {
 307:system_psoc6_cm4.c ****     case CY_ROOT_PATH_SRC_IMO:
 308:system_psoc6_cm4.c ****         srcFreqHz = CY_CLK_IMO_FREQ_HZ;
 309:system_psoc6_cm4.c ****     break;
 310:system_psoc6_cm4.c **** 
 311:system_psoc6_cm4.c ****     case CY_ROOT_PATH_SRC_EXT:
 312:system_psoc6_cm4.c ****         srcFreqHz = CY_CLK_EXT_FREQ_HZ;
 313:system_psoc6_cm4.c ****     break;
 314:system_psoc6_cm4.c **** 
ARM GAS  C:\Users\Vishwas\AppData\Local\Temp\ccDHXqd6.s 			page 7


 315:system_psoc6_cm4.c ****     #if (SRSS_ECO_PRESENT == 1U)
 316:system_psoc6_cm4.c ****         case CY_ROOT_PATH_SRC_ECO:
 317:system_psoc6_cm4.c ****             srcFreqHz = CY_CLK_ECO_FREQ_HZ;
 318:system_psoc6_cm4.c ****         break;
 319:system_psoc6_cm4.c ****     #endif /* (SRSS_ECO_PRESENT == 1U) */
 320:system_psoc6_cm4.c **** 
 321:system_psoc6_cm4.c **** #if defined (CY_IP_MXBLESS) && (CY_IP_MXBLESS == 1UL) && (SRSS_ALTHF_PRESENT == 1U)
 322:system_psoc6_cm4.c ****     case CY_ROOT_PATH_SRC_ALTHF:
 323:system_psoc6_cm4.c ****         srcFreqHz = cy_BleEcoClockFreqHz;
 324:system_psoc6_cm4.c ****     break;
 325:system_psoc6_cm4.c **** #endif /* defined (CY_IP_MXBLESS) && (CY_IP_MXBLESS == 1UL) && (SRSS_ALTHF_PRESENT == 1U) */
 326:system_psoc6_cm4.c **** 
 327:system_psoc6_cm4.c ****     case CY_ROOT_PATH_SRC_DSI_MUX:
 328:system_psoc6_cm4.c ****     {
 329:system_psoc6_cm4.c ****         uint32_t dsi_src;
 330:system_psoc6_cm4.c ****         dsi_src = _FLD2VAL(SRSS_CLK_DSI_SELECT_DSI_MUX,  SRSS->CLK_DSI_SELECT[rootPath]);
 331:system_psoc6_cm4.c ****         switch (dsi_src)
 332:system_psoc6_cm4.c ****         {
 333:system_psoc6_cm4.c ****         case CY_ROOT_PATH_SRC_DSI_MUX_HVILO:
 334:system_psoc6_cm4.c ****             srcFreqHz = CY_CLK_HVILO_FREQ_HZ;
 335:system_psoc6_cm4.c ****         break;
 336:system_psoc6_cm4.c **** 
 337:system_psoc6_cm4.c ****         case CY_ROOT_PATH_SRC_DSI_MUX_WCO:
 338:system_psoc6_cm4.c ****             srcFreqHz = CY_CLK_WCO_FREQ_HZ;
 339:system_psoc6_cm4.c ****         break;
 340:system_psoc6_cm4.c **** 
 341:system_psoc6_cm4.c ****         #if (SRSS_ALTLF_PRESENT == 1U)
 342:system_psoc6_cm4.c ****             case CY_ROOT_PATH_SRC_DSI_MUX_ALTLF:
 343:system_psoc6_cm4.c ****                 srcFreqHz = CY_CLK_ALTLF_FREQ_HZ;
 344:system_psoc6_cm4.c ****             break;
 345:system_psoc6_cm4.c ****         #endif /* (SRSS_ALTLF_PRESENT == 1U) */
 346:system_psoc6_cm4.c **** 
 347:system_psoc6_cm4.c ****         #if (SRSS_PILO_PRESENT == 1U)
 348:system_psoc6_cm4.c ****             case CY_ROOT_PATH_SRC_DSI_MUX_PILO:
 349:system_psoc6_cm4.c ****                 srcFreqHz = CY_CLK_PILO_FREQ_HZ;
 350:system_psoc6_cm4.c ****             break;
 351:system_psoc6_cm4.c ****         #endif /* (SRSS_PILO_PRESENT == 1U) */
 352:system_psoc6_cm4.c **** 
 353:system_psoc6_cm4.c ****         default:
 354:system_psoc6_cm4.c ****             srcFreqHz = CY_CLK_HVILO_FREQ_HZ;
 355:system_psoc6_cm4.c ****         break;
 356:system_psoc6_cm4.c ****         }
 357:system_psoc6_cm4.c ****     }
 358:system_psoc6_cm4.c ****     break;
 359:system_psoc6_cm4.c **** 
 360:system_psoc6_cm4.c ****     default:
 361:system_psoc6_cm4.c ****         srcFreqHz = CY_CLK_EXT_FREQ_HZ;
 362:system_psoc6_cm4.c ****     break;
 363:system_psoc6_cm4.c ****     }
 364:system_psoc6_cm4.c **** 
 365:system_psoc6_cm4.c ****     if (rootPath == 0UL)
 366:system_psoc6_cm4.c ****     {
 367:system_psoc6_cm4.c ****         /* FLL */
 368:system_psoc6_cm4.c ****         bool fllLocked       = ( 0UL != _FLD2VAL(SRSS_CLK_FLL_STATUS_LOCKED, SRSS->CLK_FLL_STATUS))
 369:system_psoc6_cm4.c ****         bool fllOutputOutput = ( 3UL == _FLD2VAL(SRSS_CLK_FLL_CONFIG3_BYPASS_SEL, SRSS->CLK_FLL_CON
 370:system_psoc6_cm4.c ****         bool fllOutputAuto   = ((0UL == _FLD2VAL(SRSS_CLK_FLL_CONFIG3_BYPASS_SEL, SRSS->CLK_FLL_CON
 371:system_psoc6_cm4.c ****                                 (1UL == _FLD2VAL(SRSS_CLK_FLL_CONFIG3_BYPASS_SEL, SRSS->CLK_FLL_CON
ARM GAS  C:\Users\Vishwas\AppData\Local\Temp\ccDHXqd6.s 			page 8


 372:system_psoc6_cm4.c ****         if ((fllOutputAuto && fllLocked) || fllOutputOutput)
 373:system_psoc6_cm4.c ****         {
 374:system_psoc6_cm4.c ****             uint32_t fllMult;
 375:system_psoc6_cm4.c ****             uint32_t refDiv;
 376:system_psoc6_cm4.c ****             uint32_t outputDiv;
 377:system_psoc6_cm4.c **** 
 378:system_psoc6_cm4.c ****             fllMult = _FLD2VAL(SRSS_CLK_FLL_CONFIG_FLL_MULT, SRSS->CLK_FLL_CONFIG);
 379:system_psoc6_cm4.c ****             refDiv  = _FLD2VAL(SRSS_CLK_FLL_CONFIG2_FLL_REF_DIV, SRSS->CLK_FLL_CONFIG2);
 380:system_psoc6_cm4.c ****             outputDiv = _FLD2VAL(SRSS_CLK_FLL_CONFIG_FLL_OUTPUT_DIV, SRSS->CLK_FLL_CONFIG) + 1UL;
 381:system_psoc6_cm4.c **** 
 382:system_psoc6_cm4.c ****             pathFreqHz = ((srcFreqHz / refDiv) * fllMult) / outputDiv;
 383:system_psoc6_cm4.c ****         }
 384:system_psoc6_cm4.c ****         else
 385:system_psoc6_cm4.c ****         {
 386:system_psoc6_cm4.c ****             pathFreqHz = srcFreqHz;
 387:system_psoc6_cm4.c ****         }
 388:system_psoc6_cm4.c ****     }
 389:system_psoc6_cm4.c ****     else if (rootPath == 1UL)
 390:system_psoc6_cm4.c ****     {
 391:system_psoc6_cm4.c ****         /* PLL */
 392:system_psoc6_cm4.c ****         bool pllLocked       = ( 0UL != _FLD2VAL(SRSS_CLK_PLL_STATUS_LOCKED,     SRSS->CLK_PLL_STAT
 393:system_psoc6_cm4.c ****         bool pllOutputOutput = ( 3UL == _FLD2VAL(SRSS_CLK_PLL_CONFIG_BYPASS_SEL, SRSS->CLK_PLL_CONF
 394:system_psoc6_cm4.c ****         bool pllOutputAuto   = ((0UL == _FLD2VAL(SRSS_CLK_PLL_CONFIG_BYPASS_SEL, SRSS->CLK_PLL_CONF
 395:system_psoc6_cm4.c ****                                 (1UL == _FLD2VAL(SRSS_CLK_PLL_CONFIG_BYPASS_SEL, SRSS->CLK_PLL_CONF
 396:system_psoc6_cm4.c ****         if ((pllOutputAuto && pllLocked) || pllOutputOutput)
 397:system_psoc6_cm4.c ****         {
 398:system_psoc6_cm4.c ****             uint32_t feedbackDiv;
 399:system_psoc6_cm4.c ****             uint32_t referenceDiv;
 400:system_psoc6_cm4.c ****             uint32_t outputDiv;
 401:system_psoc6_cm4.c **** 
 402:system_psoc6_cm4.c ****             feedbackDiv  = _FLD2VAL(SRSS_CLK_PLL_CONFIG_FEEDBACK_DIV,  SRSS->CLK_PLL_CONFIG[0UL]);
 403:system_psoc6_cm4.c ****             referenceDiv = _FLD2VAL(SRSS_CLK_PLL_CONFIG_REFERENCE_DIV, SRSS->CLK_PLL_CONFIG[0UL]);
 404:system_psoc6_cm4.c ****             outputDiv    = _FLD2VAL(SRSS_CLK_PLL_CONFIG_OUTPUT_DIV,    SRSS->CLK_PLL_CONFIG[0UL]);
 405:system_psoc6_cm4.c **** 
 406:system_psoc6_cm4.c ****             pathFreqHz = ((srcFreqHz * feedbackDiv) / referenceDiv) / outputDiv;
 407:system_psoc6_cm4.c **** 
 408:system_psoc6_cm4.c ****         }
 409:system_psoc6_cm4.c ****         else
 410:system_psoc6_cm4.c ****         {
 411:system_psoc6_cm4.c ****             pathFreqHz = srcFreqHz;
 412:system_psoc6_cm4.c ****         }
 413:system_psoc6_cm4.c ****     }
 414:system_psoc6_cm4.c ****     else
 415:system_psoc6_cm4.c ****     {
 416:system_psoc6_cm4.c ****         /* Direct */
 417:system_psoc6_cm4.c ****         pathFreqHz = srcFreqHz;
 418:system_psoc6_cm4.c ****     }
 419:system_psoc6_cm4.c **** 
 420:system_psoc6_cm4.c ****     /* Get frequency after hf_clk pre-divider */
 421:system_psoc6_cm4.c ****     pathFreqHz = pathFreqHz >> _FLD2VAL(SRSS_CLK_ROOT_SELECT_ROOT_DIV, SRSS->CLK_ROOT_SELECT[0u]);
 422:system_psoc6_cm4.c ****     cy_Hfclk0FreqHz = pathFreqHz;
 423:system_psoc6_cm4.c **** 
 424:system_psoc6_cm4.c ****     /* Fast Clock Divider */
 425:system_psoc6_cm4.c ****     fastClkDiv = 1u + _FLD2VAL(CPUSS_CM4_CLOCK_CTL_FAST_INT_DIV, CPUSS->CM4_CLOCK_CTL);
 426:system_psoc6_cm4.c **** 
 427:system_psoc6_cm4.c ****     /* Peripheral Clock Divider */
 428:system_psoc6_cm4.c ****     periClkDiv = 1u + _FLD2VAL(CPUSS_CM0_CLOCK_CTL_PERI_INT_DIV, CPUSS->CM0_CLOCK_CTL);
ARM GAS  C:\Users\Vishwas\AppData\Local\Temp\ccDHXqd6.s 			page 9


 429:system_psoc6_cm4.c ****     cy_PeriClkFreqHz = pathFreqHz / periClkDiv;
 430:system_psoc6_cm4.c **** 
 431:system_psoc6_cm4.c ****     pathFreqHz = pathFreqHz / fastClkDiv;
 432:system_psoc6_cm4.c ****     SystemCoreClock = pathFreqHz;
 433:system_psoc6_cm4.c **** 
 434:system_psoc6_cm4.c ****     /* Sets clock frequency for Delay API */
 435:system_psoc6_cm4.c ****     cy_delayFreqHz = SystemCoreClock;
 436:system_psoc6_cm4.c ****     cy_delayFreqMhz = (uint8_t)((cy_delayFreqHz + CY_DELAY_1M_MINUS_1_THRESHOLD) / CY_DELAY_1M_THRE
 437:system_psoc6_cm4.c ****     cy_delayFreqKhz = (cy_delayFreqHz + CY_DELAY_1K_MINUS_1_THRESHOLD) / CY_DELAY_1K_THRESHOLD;
 438:system_psoc6_cm4.c ****     cy_delay32kMs   = CY_DELAY_MS_OVERFLOW_THRESHOLD * cy_delayFreqKhz;
 439:system_psoc6_cm4.c **** }
 440:system_psoc6_cm4.c **** 
 441:system_psoc6_cm4.c **** 
 442:system_psoc6_cm4.c **** /*******************************************************************************
 443:system_psoc6_cm4.c **** * Function Name: Cy_SystemInitFpuEnable
 444:system_psoc6_cm4.c **** ****************************************************************************//**
 445:system_psoc6_cm4.c **** *
 446:system_psoc6_cm4.c **** * Enables the FPU if it is used. The function is called from the startup file.
 447:system_psoc6_cm4.c **** *
 448:system_psoc6_cm4.c **** *******************************************************************************/
 449:system_psoc6_cm4.c **** void Cy_SystemInitFpuEnable(void)
 450:system_psoc6_cm4.c **** {
 451:system_psoc6_cm4.c ****     #if defined (__FPU_USED) && (__FPU_USED == 1U)
 452:system_psoc6_cm4.c ****         uint32_t  interruptState;
 453:system_psoc6_cm4.c ****         interruptState = Cy_SysLib_EnterCriticalSection();
 454:system_psoc6_cm4.c ****         SCB->CPACR |= SCB_CPACR_CP10_CP11_ENABLE;
 455:system_psoc6_cm4.c ****         __DSB();
 456:system_psoc6_cm4.c ****         __ISB();
 457:system_psoc6_cm4.c ****         Cy_SysLib_ExitCriticalSection(interruptState);
 458:system_psoc6_cm4.c ****     #endif /* (__FPU_USED) && (__FPU_USED == 1U) */
 459:system_psoc6_cm4.c **** }
 460:system_psoc6_cm4.c **** 
 461:system_psoc6_cm4.c **** 
 462:system_psoc6_cm4.c **** #if !defined(CY_IPC_DEFAULT_CFG_DISABLE)
 463:system_psoc6_cm4.c **** /*******************************************************************************
 464:system_psoc6_cm4.c **** * Function Name: Cy_SysIpcPipeIsrCm4
 465:system_psoc6_cm4.c **** ****************************************************************************//**
 466:system_psoc6_cm4.c **** *
 467:system_psoc6_cm4.c **** * This is the interrupt service routine for the system pipe.
 468:system_psoc6_cm4.c **** *
 469:system_psoc6_cm4.c **** *******************************************************************************/
 470:system_psoc6_cm4.c **** void Cy_SysIpcPipeIsrCm4(void)
 471:system_psoc6_cm4.c **** {
  29              		.loc 1 471 0
  30              		.cfi_startproc
  31              		@ args = 0, pretend = 0, frame = 0
  32              		@ frame_needed = 0, uses_anonymous_args = 0
  33 0000 08B5     		push	{r3, lr}
  34              		.cfi_def_cfa_offset 8
  35              		.cfi_offset 3, -8
  36              		.cfi_offset 14, -4
 472:system_psoc6_cm4.c ****     Cy_IPC_Pipe_ExecuteCallback(CY_IPC_EP_CYPIPE_CM4_ADDR);
  37              		.loc 1 472 0
  38 0002 0120     		movs	r0, #1
  39 0004 FFF7FEFF 		bl	Cy_IPC_Pipe_ExecuteCallback
  40              	.LVL0:
  41 0008 08BD     		pop	{r3, pc}
ARM GAS  C:\Users\Vishwas\AppData\Local\Temp\ccDHXqd6.s 			page 10


  42              		.cfi_endproc
  43              	.LFE165:
  44              		.size	Cy_SysIpcPipeIsrCm4, .-Cy_SysIpcPipeIsrCm4
  45 000a 00BF     		.section	.text.Cy_SystemInit,"ax",%progbits
  46              		.align	2
  47              		.weak	Cy_SystemInit
  48              		.thumb
  49              		.thumb_func
  50              		.type	Cy_SystemInit, %function
  51              	Cy_SystemInit:
  52              	.LFB162:
 271:system_psoc6_cm4.c ****      /* Empty weak function. The actual implementation to be in the PSoC Creator
  53              		.loc 1 271 0
  54              		.cfi_startproc
  55              		@ args = 0, pretend = 0, frame = 0
  56              		@ frame_needed = 0, uses_anonymous_args = 0
  57              		@ link register save eliminated.
  58 0000 7047     		bx	lr
  59              		.cfi_endproc
  60              	.LFE162:
  61              		.size	Cy_SystemInit, .-Cy_SystemInit
  62 0002 00BF     		.section	.text.SystemCoreClockUpdate,"ax",%progbits
  63              		.align	2
  64              		.global	SystemCoreClockUpdate
  65              		.thumb
  66              		.thumb_func
  67              		.type	SystemCoreClockUpdate, %function
  68              	SystemCoreClockUpdate:
  69              	.LFB163:
 290:system_psoc6_cm4.c ****     uint32_t srcFreqHz;
  70              		.loc 1 290 0
  71              		.cfi_startproc
  72              		@ args = 0, pretend = 0, frame = 0
  73              		@ frame_needed = 0, uses_anonymous_args = 0
  74              		@ link register save eliminated.
 299:system_psoc6_cm4.c **** 
  75              		.loc 1 299 0
  76 0000 5A4A     		ldr	r2, .L24
  77 0002 D2F88033 		ldr	r3, [r2, #896]
  78 0006 03F00F03 		and	r3, r3, #15
  79              	.LVL1:
 302:system_psoc6_cm4.c **** 
  80              		.loc 1 302 0
  81 000a 03F1D001 		add	r1, r3, #208
  82 000e 52F82120 		ldr	r2, [r2, r1, lsl #2]
  83              	.LVL2:
 305:system_psoc6_cm4.c ****     {
  84              		.loc 1 305 0
  85 0012 12F00702 		ands	r2, r2, #7
  86              	.LVL3:
  87 0016 02D0     		beq	.L6
  88 0018 042A     		cmp	r2, #4
  89 001a 02D0     		beq	.L7
  90 001c 0FE0     		b	.L23
  91              	.L6:
 308:system_psoc6_cm4.c ****     break;
  92              		.loc 1 308 0
ARM GAS  C:\Users\Vishwas\AppData\Local\Temp\ccDHXqd6.s 			page 11


  93 001e 5449     		ldr	r1, .L24+4
  94 0020 11E0     		b	.L5
  95              	.L7:
  96              	.LBB6:
 330:system_psoc6_cm4.c ****         switch (dsi_src)
  97              		.loc 1 330 0
  98 0022 03F1C002 		add	r2, r3, #192
  99              	.LVL4:
 100 0026 5149     		ldr	r1, .L24
 101 0028 51F82220 		ldr	r2, [r1, r2, lsl #2]
 102 002c 02F01F02 		and	r2, r2, #31
 103              	.LVL5:
 331:system_psoc6_cm4.c ****         {
 104              		.loc 1 331 0
 105 0030 112A     		cmp	r2, #17
 106 0032 06D0     		beq	.L18
 107 0034 132A     		cmp	r2, #19
 108 0036 04D0     		beq	.L18
 334:system_psoc6_cm4.c ****         break;
 109              		.loc 1 334 0
 110 0038 4FF4FA41 		mov	r1, #32000
 111 003c 03E0     		b	.L5
 112              	.LVL6:
 113              	.L23:
 114              	.LBE6:
 312:system_psoc6_cm4.c ****     break;
 115              		.loc 1 312 0
 116 003e 4D49     		ldr	r1, .L24+8
 117 0040 01E0     		b	.L5
 118              	.LVL7:
 119              	.L18:
 120              	.LBB7:
 338:system_psoc6_cm4.c ****         break;
 121              		.loc 1 338 0
 122 0042 4FF40041 		mov	r1, #32768
 123              	.LVL8:
 124              	.L5:
 125              	.LBE7:
 365:system_psoc6_cm4.c ****     {
 126              		.loc 1 365 0
 127 0046 8BBB     		cbnz	r3, .L9
 128              	.LBB8:
 368:system_psoc6_cm4.c ****         bool fllOutputOutput = ( 3UL == _FLD2VAL(SRSS_CLK_FLL_CONFIG3_BYPASS_SEL, SRSS->CLK_FLL_CON
 129              		.loc 1 368 0
 130 0048 484B     		ldr	r3, .L24
 131              	.LVL9:
 132 004a D3F89025 		ldr	r2, [r3, #1424]
 133 004e 02F00100 		and	r0, r2, #1
 134              	.LVL10:
 369:system_psoc6_cm4.c ****         bool fllOutputAuto   = ((0UL == _FLD2VAL(SRSS_CLK_FLL_CONFIG3_BYPASS_SEL, SRSS->CLK_FLL_CON
 135              		.loc 1 369 0
 136 0052 D3F88825 		ldr	r2, [r3, #1416]
 137 0056 C2F30172 		ubfx	r2, r2, #28, #2
 138              	.LVL11:
 370:system_psoc6_cm4.c ****                                 (1UL == _FLD2VAL(SRSS_CLK_FLL_CONFIG3_BYPASS_SEL, SRSS->CLK_FLL_CON
 139              		.loc 1 370 0
 140 005a D3F88835 		ldr	r3, [r3, #1416]
ARM GAS  C:\Users\Vishwas\AppData\Local\Temp\ccDHXqd6.s 			page 12


 141 005e 13F0405F 		tst	r3, #805306368
 142 0062 07D0     		beq	.L19
 371:system_psoc6_cm4.c ****         if ((fllOutputAuto && fllLocked) || fllOutputOutput)
 143              		.loc 1 371 0 discriminator 2
 144 0064 414B     		ldr	r3, .L24
 145 0066 D3F88835 		ldr	r3, [r3, #1416]
 146 006a C3F30173 		ubfx	r3, r3, #28, #2
 370:system_psoc6_cm4.c ****                                 (1UL == _FLD2VAL(SRSS_CLK_FLL_CONFIG3_BYPASS_SEL, SRSS->CLK_FLL_CON
 147              		.loc 1 370 0 discriminator 2
 148 006e 012B     		cmp	r3, #1
 149 0070 02D1     		bne	.L20
 150 0072 02E0     		b	.L10
 151              	.L19:
 370:system_psoc6_cm4.c ****                                 (1UL == _FLD2VAL(SRSS_CLK_FLL_CONFIG3_BYPASS_SEL, SRSS->CLK_FLL_CON
 152              		.loc 1 370 0 is_stmt 0
 153 0074 0123     		movs	r3, #1
 154 0076 00E0     		b	.L10
 155              	.L20:
 156 0078 0023     		movs	r3, #0
 157              	.L10:
 158              	.LVL12:
 372:system_psoc6_cm4.c ****         {
 159              		.loc 1 372 0 is_stmt 1 discriminator 6
 160 007a 03B1     		cbz	r3, .L11
 372:system_psoc6_cm4.c ****         {
 161              		.loc 1 372 0 is_stmt 0 discriminator 1
 162 007c 08B9     		cbnz	r0, .L12
 163              	.L11:
 372:system_psoc6_cm4.c ****         {
 164              		.loc 1 372 0 discriminator 3
 165 007e 032A     		cmp	r2, #3
 166 0080 46D1     		bne	.L13
 167              	.L12:
 168              	.LBB9:
 378:system_psoc6_cm4.c ****             refDiv  = _FLD2VAL(SRSS_CLK_FLL_CONFIG2_FLL_REF_DIV, SRSS->CLK_FLL_CONFIG2);
 169              		.loc 1 378 0 is_stmt 1
 170 0082 3A48     		ldr	r0, .L24
 171              	.LVL13:
 172 0084 D0F88025 		ldr	r2, [r0, #1408]
 173              	.LVL14:
 174 0088 C2F31103 		ubfx	r3, r2, #0, #18
 175              	.LVL15:
 379:system_psoc6_cm4.c ****             outputDiv = _FLD2VAL(SRSS_CLK_FLL_CONFIG_FLL_OUTPUT_DIV, SRSS->CLK_FLL_CONFIG) + 1UL;
 176              		.loc 1 379 0
 177 008c D0F88425 		ldr	r2, [r0, #1412]
 178 0090 C2F30C02 		ubfx	r2, r2, #0, #13
 179              	.LVL16:
 380:system_psoc6_cm4.c **** 
 180              		.loc 1 380 0
 181 0094 D0F88005 		ldr	r0, [r0, #1408]
 182 0098 C0F30060 		ubfx	r0, r0, #24, #1
 183 009c 0130     		adds	r0, r0, #1
 184              	.LVL17:
 382:system_psoc6_cm4.c ****         }
 185              		.loc 1 382 0
 186 009e B1FBF2F2 		udiv	r2, r1, r2
 187              	.LVL18:
ARM GAS  C:\Users\Vishwas\AppData\Local\Temp\ccDHXqd6.s 			page 13


 188 00a2 02FB03F2 		mul	r2, r2, r3
 189 00a6 B2FBF0F1 		udiv	r1, r2, r0
 190              	.LVL19:
 191              	.LBE9:
 373:system_psoc6_cm4.c ****             uint32_t fllMult;
 192              		.loc 1 373 0
 193 00aa 31E0     		b	.L13
 194              	.LVL20:
 195              	.L9:
 196              	.LBE8:
 389:system_psoc6_cm4.c ****     {
 197              		.loc 1 389 0
 198 00ac 012B     		cmp	r3, #1
 199 00ae 2FD1     		bne	.L13
 200              	.LBB10:
 392:system_psoc6_cm4.c ****         bool pllOutputOutput = ( 3UL == _FLD2VAL(SRSS_CLK_PLL_CONFIG_BYPASS_SEL, SRSS->CLK_PLL_CONF
 201              		.loc 1 392 0
 202 00b0 2E4B     		ldr	r3, .L24
 203              	.LVL21:
 204 00b2 D3F84026 		ldr	r2, [r3, #1600]
 205 00b6 02F00100 		and	r0, r2, #1
 206              	.LVL22:
 393:system_psoc6_cm4.c ****         bool pllOutputAuto   = ((0UL == _FLD2VAL(SRSS_CLK_PLL_CONFIG_BYPASS_SEL, SRSS->CLK_PLL_CONF
 207              		.loc 1 393 0
 208 00ba D3F80026 		ldr	r2, [r3, #1536]
 209 00be C2F30172 		ubfx	r2, r2, #28, #2
 210              	.LVL23:
 394:system_psoc6_cm4.c ****                                 (1UL == _FLD2VAL(SRSS_CLK_PLL_CONFIG_BYPASS_SEL, SRSS->CLK_PLL_CONF
 211              		.loc 1 394 0
 212 00c2 D3F80036 		ldr	r3, [r3, #1536]
 213 00c6 13F0405F 		tst	r3, #805306368
 214 00ca 07D0     		beq	.L21
 395:system_psoc6_cm4.c ****         if ((pllOutputAuto && pllLocked) || pllOutputOutput)
 215              		.loc 1 395 0 discriminator 2
 216 00cc 274B     		ldr	r3, .L24
 217 00ce D3F80036 		ldr	r3, [r3, #1536]
 218 00d2 C3F30173 		ubfx	r3, r3, #28, #2
 394:system_psoc6_cm4.c ****                                 (1UL == _FLD2VAL(SRSS_CLK_PLL_CONFIG_BYPASS_SEL, SRSS->CLK_PLL_CONF
 219              		.loc 1 394 0 discriminator 2
 220 00d6 012B     		cmp	r3, #1
 221 00d8 02D1     		bne	.L22
 222 00da 02E0     		b	.L14
 223              	.L21:
 394:system_psoc6_cm4.c ****                                 (1UL == _FLD2VAL(SRSS_CLK_PLL_CONFIG_BYPASS_SEL, SRSS->CLK_PLL_CONF
 224              		.loc 1 394 0 is_stmt 0
 225 00dc 0123     		movs	r3, #1
 226 00de 00E0     		b	.L14
 227              	.L22:
 228 00e0 0023     		movs	r3, #0
 229              	.L14:
 230              	.LVL24:
 396:system_psoc6_cm4.c ****         {
 231              		.loc 1 396 0 is_stmt 1 discriminator 6
 232 00e2 03B1     		cbz	r3, .L15
 396:system_psoc6_cm4.c ****         {
 233              		.loc 1 396 0 is_stmt 0 discriminator 1
 234 00e4 08B9     		cbnz	r0, .L16
ARM GAS  C:\Users\Vishwas\AppData\Local\Temp\ccDHXqd6.s 			page 14


 235              	.L15:
 396:system_psoc6_cm4.c ****         {
 236              		.loc 1 396 0 discriminator 3
 237 00e6 032A     		cmp	r2, #3
 238 00e8 12D1     		bne	.L13
 239              	.L16:
 240              	.LBB11:
 402:system_psoc6_cm4.c ****             referenceDiv = _FLD2VAL(SRSS_CLK_PLL_CONFIG_REFERENCE_DIV, SRSS->CLK_PLL_CONFIG[0UL]);
 241              		.loc 1 402 0 is_stmt 1
 242 00ea 2048     		ldr	r0, .L24
 243              	.LVL25:
 244 00ec D0F80026 		ldr	r2, [r0, #1536]
 245              	.LVL26:
 246 00f0 02F07F02 		and	r2, r2, #127
 247              	.LVL27:
 403:system_psoc6_cm4.c ****             outputDiv    = _FLD2VAL(SRSS_CLK_PLL_CONFIG_OUTPUT_DIV,    SRSS->CLK_PLL_CONFIG[0UL]);
 248              		.loc 1 403 0
 249 00f4 D0F80036 		ldr	r3, [r0, #1536]
 250              	.LVL28:
 251 00f8 C3F30423 		ubfx	r3, r3, #8, #5
 252              	.LVL29:
 404:system_psoc6_cm4.c **** 
 253              		.loc 1 404 0
 254 00fc D0F80006 		ldr	r0, [r0, #1536]
 255 0100 C0F30440 		ubfx	r0, r0, #16, #5
 256              	.LVL30:
 406:system_psoc6_cm4.c **** 
 257              		.loc 1 406 0
 258 0104 02FB01F2 		mul	r2, r2, r1
 259              	.LVL31:
 260 0108 B2FBF3F2 		udiv	r2, r2, r3
 261 010c B2FBF0F1 		udiv	r1, r2, r0
 262              	.LVL32:
 263              	.L13:
 264              	.LBE11:
 265              	.LBE10:
 421:system_psoc6_cm4.c ****     cy_Hfclk0FreqHz = pathFreqHz;
 266              		.loc 1 421 0
 267 0110 164B     		ldr	r3, .L24
 268 0112 D3F88033 		ldr	r3, [r3, #896]
 269 0116 C3F30113 		ubfx	r3, r3, #4, #2
 270 011a 21FA03F2 		lsr	r2, r1, r3
 271              	.LVL33:
 422:system_psoc6_cm4.c **** 
 272              		.loc 1 422 0
 273 011e 1649     		ldr	r1, .L24+12
 274 0120 0A60     		str	r2, [r1]
 425:system_psoc6_cm4.c **** 
 275              		.loc 1 425 0
 276 0122 1648     		ldr	r0, .L24+16
 277 0124 D0F89030 		ldr	r3, [r0, #144]
 278 0128 C3F30723 		ubfx	r3, r3, #8, #8
 279 012c 0133     		adds	r3, r3, #1
 280              	.LVL34:
 428:system_psoc6_cm4.c ****     cy_PeriClkFreqHz = pathFreqHz / periClkDiv;
 281              		.loc 1 428 0
 282 012e 0069     		ldr	r0, [r0, #16]
ARM GAS  C:\Users\Vishwas\AppData\Local\Temp\ccDHXqd6.s 			page 15


 283 0130 000E     		lsrs	r0, r0, #24
 284 0132 0130     		adds	r0, r0, #1
 285              	.LVL35:
 429:system_psoc6_cm4.c **** 
 286              		.loc 1 429 0
 287 0134 B2FBF0F0 		udiv	r0, r2, r0
 288              	.LVL36:
 289 0138 4860     		str	r0, [r1, #4]
 431:system_psoc6_cm4.c ****     SystemCoreClock = pathFreqHz;
 290              		.loc 1 431 0
 291 013a B2FBF3F3 		udiv	r3, r2, r3
 292              	.LVL37:
 432:system_psoc6_cm4.c **** 
 293              		.loc 1 432 0
 294 013e 8B60     		str	r3, [r1, #8]
 435:system_psoc6_cm4.c ****     cy_delayFreqMhz = (uint8_t)((cy_delayFreqHz + CY_DELAY_1M_MINUS_1_THRESHOLD) / CY_DELAY_1M_THRE
 295              		.loc 1 435 0
 296 0140 CB60     		str	r3, [r1, #12]
 436:system_psoc6_cm4.c ****     cy_delayFreqKhz = (cy_delayFreqHz + CY_DELAY_1K_MINUS_1_THRESHOLD) / CY_DELAY_1K_THRESHOLD;
 297              		.loc 1 436 0
 298 0142 03F57422 		add	r2, r3, #999424
 299 0146 02F23F22 		addw	r2, r2, #575
 300 014a 0D48     		ldr	r0, .L24+20
 301 014c A0FB0202 		umull	r0, r2, r0, r2
 302 0150 C2F38742 		ubfx	r2, r2, #18, #8
 303 0154 0A74     		strb	r2, [r1, #16]
 437:system_psoc6_cm4.c ****     cy_delay32kMs   = CY_DELAY_MS_OVERFLOW_THRESHOLD * cy_delayFreqKhz;
 304              		.loc 1 437 0
 305 0156 03F2E733 		addw	r3, r3, #999
 306              	.LVL38:
 307 015a 0A4A     		ldr	r2, .L24+24
 308 015c A2FB0323 		umull	r2, r3, r2, r3
 309 0160 9B09     		lsrs	r3, r3, #6
 310 0162 4B61     		str	r3, [r1, #20]
 438:system_psoc6_cm4.c **** }
 311              		.loc 1 438 0
 312 0164 DB03     		lsls	r3, r3, #15
 313 0166 8B61     		str	r3, [r1, #24]
 314 0168 7047     		bx	lr
 315              	.L25:
 316 016a 00BF     		.align	2
 317              	.L24:
 318 016c 00002640 		.word	1076232192
 319 0170 00127A00 		.word	8000000
 320 0174 00366E01 		.word	24000000
 321 0178 00000000 		.word	.LANCHOR0
 322 017c 00002140 		.word	1075904512
 323 0180 83DE1B43 		.word	1125899907
 324 0184 D34D6210 		.word	274877907
 325              		.cfi_endproc
 326              	.LFE163:
 327              		.size	SystemCoreClockUpdate, .-SystemCoreClockUpdate
 328              		.section	.text.SystemInit,"ax",%progbits
 329              		.align	2
 330              		.global	SystemInit
 331              		.thumb
 332              		.thumb_func
ARM GAS  C:\Users\Vishwas\AppData\Local\Temp\ccDHXqd6.s 			page 16


 333              		.type	SystemInit, %function
 334              	SystemInit:
 335              	.LFB161:
 157:system_psoc6_cm4.c ****     Cy_PDL_Init(CY_DEVICE_CFG);
 336              		.loc 1 157 0
 337              		.cfi_startproc
 338              		@ args = 0, pretend = 0, frame = 0
 339              		@ frame_needed = 0, uses_anonymous_args = 0
 340 0000 08B5     		push	{r3, lr}
 341              		.cfi_def_cfa_offset 8
 342              		.cfi_offset 3, -8
 343              		.cfi_offset 14, -4
 158:system_psoc6_cm4.c **** 
 344              		.loc 1 158 0
 345 0002 0D48     		ldr	r0, .L29
 346 0004 FFF7FEFF 		bl	Cy_PDL_Init
 347              	.LVL39:
 182:system_psoc6_cm4.c ****     SystemCoreClockUpdate();
 348              		.loc 1 182 0
 349 0008 FFF7FEFF 		bl	Cy_SystemInit
 350              	.LVL40:
 183:system_psoc6_cm4.c **** 
 351              		.loc 1 183 0
 352 000c FFF7FEFF 		bl	SystemCoreClockUpdate
 353              	.LVL41:
 193:system_psoc6_cm4.c ****     #endif /* (__CM0P_PRESENT) */
 354              		.loc 1 193 0
 355 0010 0022     		movs	r2, #0
 356 0012 1146     		mov	r1, r2
 357 0014 0420     		movs	r0, #4
 358 0016 FFF7FEFF 		bl	Cy_IPC_Sema_Init
 359              	.LVL42:
 216:system_psoc6_cm4.c **** 
 360              		.loc 1 216 0
 361 001a 0848     		ldr	r0, .L29+4
 362 001c FFF7FEFF 		bl	Cy_IPC_Pipe_Config
 363              	.LVL43:
 243:system_psoc6_cm4.c ****     {
 364              		.loc 1 243 0
 365 0020 074B     		ldr	r3, .L29+8
 366 0022 1B68     		ldr	r3, [r3]
 367 0024 93F85130 		ldrb	r3, [r3, #81]	@ zero_extendqisi2
 368 0028 13B1     		cbz	r3, .L27
 245:system_psoc6_cm4.c ****     }
 369              		.loc 1 245 0
 370 002a 0648     		ldr	r0, .L29+12
 371 002c FFF7FEFF 		bl	Cy_IPC_Pipe_Init
 372              	.LVL44:
 373              	.L27:
 249:system_psoc6_cm4.c **** #endif /* defined(CY_DEVICE_PSOC6ABLE2) */
 374              		.loc 1 249 0
 375 0030 FFF7FEFF 		bl	Cy_Flash_Init
 376              	.LVL45:
 377 0034 08BD     		pop	{r3, pc}
 378              	.L30:
 379 0036 00BF     		.align	2
 380              	.L29:
ARM GAS  C:\Users\Vishwas\AppData\Local\Temp\ccDHXqd6.s 			page 17


 381 0038 00000000 		.word	cy_deviceIpBlockCfgPSoC6_01
 382 003c 00000000 		.word	.LANCHOR1
 383 0040 00000000 		.word	cy_device
 384 0044 00000000 		.word	.LANCHOR2
 385              		.cfi_endproc
 386              	.LFE161:
 387              		.size	SystemInit, .-SystemInit
 388              		.section	.text.Cy_SystemInitFpuEnable,"ax",%progbits
 389              		.align	2
 390              		.global	Cy_SystemInitFpuEnable
 391              		.thumb
 392              		.thumb_func
 393              		.type	Cy_SystemInitFpuEnable, %function
 394              	Cy_SystemInitFpuEnable:
 395              	.LFB164:
 450:system_psoc6_cm4.c ****     #if defined (__FPU_USED) && (__FPU_USED == 1U)
 396              		.loc 1 450 0
 397              		.cfi_startproc
 398              		@ args = 0, pretend = 0, frame = 0
 399              		@ frame_needed = 0, uses_anonymous_args = 0
 400 0000 08B5     		push	{r3, lr}
 401              		.cfi_def_cfa_offset 8
 402              		.cfi_offset 3, -8
 403              		.cfi_offset 14, -4
 453:system_psoc6_cm4.c ****         SCB->CPACR |= SCB_CPACR_CP10_CP11_ENABLE;
 404              		.loc 1 453 0
 405 0002 FFF7FEFF 		bl	Cy_SysLib_EnterCriticalSection
 406              	.LVL46:
 454:system_psoc6_cm4.c ****         __DSB();
 407              		.loc 1 454 0
 408 0006 074A     		ldr	r2, .L33
 409 0008 D2F88830 		ldr	r3, [r2, #136]
 410 000c 43F47003 		orr	r3, r3, #15728640
 411 0010 C2F88830 		str	r3, [r2, #136]
 412              	.LBB12:
 413              	.LBB13:
 414              		.file 2 "Generated_Source\\PSoC6\\pdl\\cmsis/include/cmsis_gcc.h"
   1:Generated_Source\PSoC6\pdl\cmsis/include/cmsis_gcc.h **** /**************************************************************************//**
   2:Generated_Source\PSoC6\pdl\cmsis/include/cmsis_gcc.h ****  * @file     cmsis_gcc.h
   3:Generated_Source\PSoC6\pdl\cmsis/include/cmsis_gcc.h ****  * @brief    CMSIS compiler GCC header file
   4:Generated_Source\PSoC6\pdl\cmsis/include/cmsis_gcc.h ****  * @version  V5.0.3
   5:Generated_Source\PSoC6\pdl\cmsis/include/cmsis_gcc.h ****  * @date     16. January 2018
   6:Generated_Source\PSoC6\pdl\cmsis/include/cmsis_gcc.h ****  ******************************************************************************/
   7:Generated_Source\PSoC6\pdl\cmsis/include/cmsis_gcc.h **** /*
   8:Generated_Source\PSoC6\pdl\cmsis/include/cmsis_gcc.h ****  * Copyright (c) 2009-2017 ARM Limited. All rights reserved.
   9:Generated_Source\PSoC6\pdl\cmsis/include/cmsis_gcc.h ****  *
  10:Generated_Source\PSoC6\pdl\cmsis/include/cmsis_gcc.h ****  * SPDX-License-Identifier: Apache-2.0
  11:Generated_Source\PSoC6\pdl\cmsis/include/cmsis_gcc.h ****  *
  12:Generated_Source\PSoC6\pdl\cmsis/include/cmsis_gcc.h ****  * Licensed under the Apache License, Version 2.0 (the License); you may
  13:Generated_Source\PSoC6\pdl\cmsis/include/cmsis_gcc.h ****  * not use this file except in compliance with the License.
  14:Generated_Source\PSoC6\pdl\cmsis/include/cmsis_gcc.h ****  * You may obtain a copy of the License at
  15:Generated_Source\PSoC6\pdl\cmsis/include/cmsis_gcc.h ****  *
  16:Generated_Source\PSoC6\pdl\cmsis/include/cmsis_gcc.h ****  * www.apache.org/licenses/LICENSE-2.0
  17:Generated_Source\PSoC6\pdl\cmsis/include/cmsis_gcc.h ****  *
  18:Generated_Source\PSoC6\pdl\cmsis/include/cmsis_gcc.h ****  * Unless required by applicable law or agreed to in writing, software
  19:Generated_Source\PSoC6\pdl\cmsis/include/cmsis_gcc.h ****  * distributed under the License is distributed on an AS IS BASIS, WITHOUT
  20:Generated_Source\PSoC6\pdl\cmsis/include/cmsis_gcc.h ****  * WARRANTIES OR CONDITIONS OF ANY KIND, either express or implied.
ARM GAS  C:\Users\Vishwas\AppData\Local\Temp\ccDHXqd6.s 			page 18


  21:Generated_Source\PSoC6\pdl\cmsis/include/cmsis_gcc.h ****  * See the License for the specific language governing permissions and
  22:Generated_Source\PSoC6\pdl\cmsis/include/cmsis_gcc.h ****  * limitations under the License.
  23:Generated_Source\PSoC6\pdl\cmsis/include/cmsis_gcc.h ****  */
  24:Generated_Source\PSoC6\pdl\cmsis/include/cmsis_gcc.h **** 
  25:Generated_Source\PSoC6\pdl\cmsis/include/cmsis_gcc.h **** #ifndef __CMSIS_GCC_H
  26:Generated_Source\PSoC6\pdl\cmsis/include/cmsis_gcc.h **** #define __CMSIS_GCC_H
  27:Generated_Source\PSoC6\pdl\cmsis/include/cmsis_gcc.h **** 
  28:Generated_Source\PSoC6\pdl\cmsis/include/cmsis_gcc.h **** /* ignore some GCC warnings */
  29:Generated_Source\PSoC6\pdl\cmsis/include/cmsis_gcc.h **** #pragma GCC diagnostic push
  30:Generated_Source\PSoC6\pdl\cmsis/include/cmsis_gcc.h **** #pragma GCC diagnostic ignored "-Wsign-conversion"
  31:Generated_Source\PSoC6\pdl\cmsis/include/cmsis_gcc.h **** #pragma GCC diagnostic ignored "-Wconversion"
  32:Generated_Source\PSoC6\pdl\cmsis/include/cmsis_gcc.h **** #pragma GCC diagnostic ignored "-Wunused-parameter"
  33:Generated_Source\PSoC6\pdl\cmsis/include/cmsis_gcc.h **** 
  34:Generated_Source\PSoC6\pdl\cmsis/include/cmsis_gcc.h **** /* Fallback for __has_builtin */
  35:Generated_Source\PSoC6\pdl\cmsis/include/cmsis_gcc.h **** #ifndef __has_builtin
  36:Generated_Source\PSoC6\pdl\cmsis/include/cmsis_gcc.h ****   #define __has_builtin(x) (0)
  37:Generated_Source\PSoC6\pdl\cmsis/include/cmsis_gcc.h **** #endif
  38:Generated_Source\PSoC6\pdl\cmsis/include/cmsis_gcc.h **** 
  39:Generated_Source\PSoC6\pdl\cmsis/include/cmsis_gcc.h **** /* CMSIS compiler specific defines */
  40:Generated_Source\PSoC6\pdl\cmsis/include/cmsis_gcc.h **** #ifndef   __ASM
  41:Generated_Source\PSoC6\pdl\cmsis/include/cmsis_gcc.h ****   #define __ASM                                  __asm
  42:Generated_Source\PSoC6\pdl\cmsis/include/cmsis_gcc.h **** #endif
  43:Generated_Source\PSoC6\pdl\cmsis/include/cmsis_gcc.h **** #ifndef   __INLINE
  44:Generated_Source\PSoC6\pdl\cmsis/include/cmsis_gcc.h ****   #define __INLINE                               inline
  45:Generated_Source\PSoC6\pdl\cmsis/include/cmsis_gcc.h **** #endif
  46:Generated_Source\PSoC6\pdl\cmsis/include/cmsis_gcc.h **** #ifndef   __STATIC_INLINE
  47:Generated_Source\PSoC6\pdl\cmsis/include/cmsis_gcc.h ****   #define __STATIC_INLINE                        static inline
  48:Generated_Source\PSoC6\pdl\cmsis/include/cmsis_gcc.h **** #endif
  49:Generated_Source\PSoC6\pdl\cmsis/include/cmsis_gcc.h **** #ifndef   __STATIC_FORCEINLINE                 
  50:Generated_Source\PSoC6\pdl\cmsis/include/cmsis_gcc.h ****   #define __STATIC_FORCEINLINE                   __attribute__((always_inline)) static inline
  51:Generated_Source\PSoC6\pdl\cmsis/include/cmsis_gcc.h **** #endif                                           
  52:Generated_Source\PSoC6\pdl\cmsis/include/cmsis_gcc.h **** #ifndef   __NO_RETURN
  53:Generated_Source\PSoC6\pdl\cmsis/include/cmsis_gcc.h ****   #define __NO_RETURN                            __attribute__((__noreturn__))
  54:Generated_Source\PSoC6\pdl\cmsis/include/cmsis_gcc.h **** #endif
  55:Generated_Source\PSoC6\pdl\cmsis/include/cmsis_gcc.h **** #ifndef   __USED
  56:Generated_Source\PSoC6\pdl\cmsis/include/cmsis_gcc.h ****   #define __USED                                 __attribute__((used))
  57:Generated_Source\PSoC6\pdl\cmsis/include/cmsis_gcc.h **** #endif
  58:Generated_Source\PSoC6\pdl\cmsis/include/cmsis_gcc.h **** #ifndef   __WEAK
  59:Generated_Source\PSoC6\pdl\cmsis/include/cmsis_gcc.h ****   #define __WEAK                                 __attribute__((weak))
  60:Generated_Source\PSoC6\pdl\cmsis/include/cmsis_gcc.h **** #endif
  61:Generated_Source\PSoC6\pdl\cmsis/include/cmsis_gcc.h **** #ifndef   __PACKED
  62:Generated_Source\PSoC6\pdl\cmsis/include/cmsis_gcc.h ****   #define __PACKED                               __attribute__((packed, aligned(1)))
  63:Generated_Source\PSoC6\pdl\cmsis/include/cmsis_gcc.h **** #endif
  64:Generated_Source\PSoC6\pdl\cmsis/include/cmsis_gcc.h **** #ifndef   __PACKED_STRUCT
  65:Generated_Source\PSoC6\pdl\cmsis/include/cmsis_gcc.h ****   #define __PACKED_STRUCT                        struct __attribute__((packed, aligned(1)))
  66:Generated_Source\PSoC6\pdl\cmsis/include/cmsis_gcc.h **** #endif
  67:Generated_Source\PSoC6\pdl\cmsis/include/cmsis_gcc.h **** #ifndef   __PACKED_UNION
  68:Generated_Source\PSoC6\pdl\cmsis/include/cmsis_gcc.h ****   #define __PACKED_UNION                         union __attribute__((packed, aligned(1)))
  69:Generated_Source\PSoC6\pdl\cmsis/include/cmsis_gcc.h **** #endif
  70:Generated_Source\PSoC6\pdl\cmsis/include/cmsis_gcc.h **** #ifndef   __UNALIGNED_UINT32        /* deprecated */
  71:Generated_Source\PSoC6\pdl\cmsis/include/cmsis_gcc.h ****   #pragma GCC diagnostic push
  72:Generated_Source\PSoC6\pdl\cmsis/include/cmsis_gcc.h ****   #pragma GCC diagnostic ignored "-Wpacked"
  73:Generated_Source\PSoC6\pdl\cmsis/include/cmsis_gcc.h ****   #pragma GCC diagnostic ignored "-Wattributes"
  74:Generated_Source\PSoC6\pdl\cmsis/include/cmsis_gcc.h ****   struct __attribute__((packed)) T_UINT32 { uint32_t v; };
  75:Generated_Source\PSoC6\pdl\cmsis/include/cmsis_gcc.h ****   #pragma GCC diagnostic pop
  76:Generated_Source\PSoC6\pdl\cmsis/include/cmsis_gcc.h ****   #define __UNALIGNED_UINT32(x)                  (((struct T_UINT32 *)(x))->v)
  77:Generated_Source\PSoC6\pdl\cmsis/include/cmsis_gcc.h **** #endif
ARM GAS  C:\Users\Vishwas\AppData\Local\Temp\ccDHXqd6.s 			page 19


  78:Generated_Source\PSoC6\pdl\cmsis/include/cmsis_gcc.h **** #ifndef   __UNALIGNED_UINT16_WRITE
  79:Generated_Source\PSoC6\pdl\cmsis/include/cmsis_gcc.h ****   #pragma GCC diagnostic push
  80:Generated_Source\PSoC6\pdl\cmsis/include/cmsis_gcc.h ****   #pragma GCC diagnostic ignored "-Wpacked"
  81:Generated_Source\PSoC6\pdl\cmsis/include/cmsis_gcc.h ****   #pragma GCC diagnostic ignored "-Wattributes"
  82:Generated_Source\PSoC6\pdl\cmsis/include/cmsis_gcc.h ****   __PACKED_STRUCT T_UINT16_WRITE { uint16_t v; };
  83:Generated_Source\PSoC6\pdl\cmsis/include/cmsis_gcc.h ****   #pragma GCC diagnostic pop
  84:Generated_Source\PSoC6\pdl\cmsis/include/cmsis_gcc.h ****   #define __UNALIGNED_UINT16_WRITE(addr, val)    (void)((((struct T_UINT16_WRITE *)(void *)(addr))-
  85:Generated_Source\PSoC6\pdl\cmsis/include/cmsis_gcc.h **** #endif
  86:Generated_Source\PSoC6\pdl\cmsis/include/cmsis_gcc.h **** #ifndef   __UNALIGNED_UINT16_READ
  87:Generated_Source\PSoC6\pdl\cmsis/include/cmsis_gcc.h ****   #pragma GCC diagnostic push
  88:Generated_Source\PSoC6\pdl\cmsis/include/cmsis_gcc.h ****   #pragma GCC diagnostic ignored "-Wpacked"
  89:Generated_Source\PSoC6\pdl\cmsis/include/cmsis_gcc.h ****   #pragma GCC diagnostic ignored "-Wattributes"
  90:Generated_Source\PSoC6\pdl\cmsis/include/cmsis_gcc.h ****   __PACKED_STRUCT T_UINT16_READ { uint16_t v; };
  91:Generated_Source\PSoC6\pdl\cmsis/include/cmsis_gcc.h ****   #pragma GCC diagnostic pop
  92:Generated_Source\PSoC6\pdl\cmsis/include/cmsis_gcc.h ****   #define __UNALIGNED_UINT16_READ(addr)          (((const struct T_UINT16_READ *)(const void *)(add
  93:Generated_Source\PSoC6\pdl\cmsis/include/cmsis_gcc.h **** #endif
  94:Generated_Source\PSoC6\pdl\cmsis/include/cmsis_gcc.h **** #ifndef   __UNALIGNED_UINT32_WRITE
  95:Generated_Source\PSoC6\pdl\cmsis/include/cmsis_gcc.h ****   #pragma GCC diagnostic push
  96:Generated_Source\PSoC6\pdl\cmsis/include/cmsis_gcc.h ****   #pragma GCC diagnostic ignored "-Wpacked"
  97:Generated_Source\PSoC6\pdl\cmsis/include/cmsis_gcc.h ****   #pragma GCC diagnostic ignored "-Wattributes"
  98:Generated_Source\PSoC6\pdl\cmsis/include/cmsis_gcc.h ****   __PACKED_STRUCT T_UINT32_WRITE { uint32_t v; };
  99:Generated_Source\PSoC6\pdl\cmsis/include/cmsis_gcc.h ****   #pragma GCC diagnostic pop
 100:Generated_Source\PSoC6\pdl\cmsis/include/cmsis_gcc.h ****   #define __UNALIGNED_UINT32_WRITE(addr, val)    (void)((((struct T_UINT32_WRITE *)(void *)(addr))-
 101:Generated_Source\PSoC6\pdl\cmsis/include/cmsis_gcc.h **** #endif
 102:Generated_Source\PSoC6\pdl\cmsis/include/cmsis_gcc.h **** #ifndef   __UNALIGNED_UINT32_READ
 103:Generated_Source\PSoC6\pdl\cmsis/include/cmsis_gcc.h ****   #pragma GCC diagnostic push
 104:Generated_Source\PSoC6\pdl\cmsis/include/cmsis_gcc.h ****   #pragma GCC diagnostic ignored "-Wpacked"
 105:Generated_Source\PSoC6\pdl\cmsis/include/cmsis_gcc.h ****   #pragma GCC diagnostic ignored "-Wattributes"
 106:Generated_Source\PSoC6\pdl\cmsis/include/cmsis_gcc.h ****   __PACKED_STRUCT T_UINT32_READ { uint32_t v; };
 107:Generated_Source\PSoC6\pdl\cmsis/include/cmsis_gcc.h ****   #pragma GCC diagnostic pop
 108:Generated_Source\PSoC6\pdl\cmsis/include/cmsis_gcc.h ****   #define __UNALIGNED_UINT32_READ(addr)          (((const struct T_UINT32_READ *)(const void *)(add
 109:Generated_Source\PSoC6\pdl\cmsis/include/cmsis_gcc.h **** #endif
 110:Generated_Source\PSoC6\pdl\cmsis/include/cmsis_gcc.h **** #ifndef   __ALIGNED
 111:Generated_Source\PSoC6\pdl\cmsis/include/cmsis_gcc.h ****   #define __ALIGNED(x)                           __attribute__((aligned(x)))
 112:Generated_Source\PSoC6\pdl\cmsis/include/cmsis_gcc.h **** #endif
 113:Generated_Source\PSoC6\pdl\cmsis/include/cmsis_gcc.h **** #ifndef   __RESTRICT
 114:Generated_Source\PSoC6\pdl\cmsis/include/cmsis_gcc.h ****   #define __RESTRICT                             __restrict
 115:Generated_Source\PSoC6\pdl\cmsis/include/cmsis_gcc.h **** #endif
 116:Generated_Source\PSoC6\pdl\cmsis/include/cmsis_gcc.h **** 
 117:Generated_Source\PSoC6\pdl\cmsis/include/cmsis_gcc.h **** 
 118:Generated_Source\PSoC6\pdl\cmsis/include/cmsis_gcc.h **** /* ###########################  Core Function Access  ########################### */
 119:Generated_Source\PSoC6\pdl\cmsis/include/cmsis_gcc.h **** /** \ingroup  CMSIS_Core_FunctionInterface
 120:Generated_Source\PSoC6\pdl\cmsis/include/cmsis_gcc.h ****     \defgroup CMSIS_Core_RegAccFunctions CMSIS Core Register Access Functions
 121:Generated_Source\PSoC6\pdl\cmsis/include/cmsis_gcc.h ****   @{
 122:Generated_Source\PSoC6\pdl\cmsis/include/cmsis_gcc.h ****  */
 123:Generated_Source\PSoC6\pdl\cmsis/include/cmsis_gcc.h **** 
 124:Generated_Source\PSoC6\pdl\cmsis/include/cmsis_gcc.h **** /**
 125:Generated_Source\PSoC6\pdl\cmsis/include/cmsis_gcc.h ****   \brief   Enable IRQ Interrupts
 126:Generated_Source\PSoC6\pdl\cmsis/include/cmsis_gcc.h ****   \details Enables IRQ interrupts by clearing the I-bit in the CPSR.
 127:Generated_Source\PSoC6\pdl\cmsis/include/cmsis_gcc.h ****            Can only be executed in Privileged modes.
 128:Generated_Source\PSoC6\pdl\cmsis/include/cmsis_gcc.h ****  */
 129:Generated_Source\PSoC6\pdl\cmsis/include/cmsis_gcc.h **** __STATIC_FORCEINLINE void __enable_irq(void)
 130:Generated_Source\PSoC6\pdl\cmsis/include/cmsis_gcc.h **** {
 131:Generated_Source\PSoC6\pdl\cmsis/include/cmsis_gcc.h ****   __ASM volatile ("cpsie i" : : : "memory");
 132:Generated_Source\PSoC6\pdl\cmsis/include/cmsis_gcc.h **** }
 133:Generated_Source\PSoC6\pdl\cmsis/include/cmsis_gcc.h **** 
 134:Generated_Source\PSoC6\pdl\cmsis/include/cmsis_gcc.h **** 
ARM GAS  C:\Users\Vishwas\AppData\Local\Temp\ccDHXqd6.s 			page 20


 135:Generated_Source\PSoC6\pdl\cmsis/include/cmsis_gcc.h **** /**
 136:Generated_Source\PSoC6\pdl\cmsis/include/cmsis_gcc.h ****   \brief   Disable IRQ Interrupts
 137:Generated_Source\PSoC6\pdl\cmsis/include/cmsis_gcc.h ****   \details Disables IRQ interrupts by setting the I-bit in the CPSR.
 138:Generated_Source\PSoC6\pdl\cmsis/include/cmsis_gcc.h ****            Can only be executed in Privileged modes.
 139:Generated_Source\PSoC6\pdl\cmsis/include/cmsis_gcc.h ****  */
 140:Generated_Source\PSoC6\pdl\cmsis/include/cmsis_gcc.h **** __STATIC_FORCEINLINE void __disable_irq(void)
 141:Generated_Source\PSoC6\pdl\cmsis/include/cmsis_gcc.h **** {
 142:Generated_Source\PSoC6\pdl\cmsis/include/cmsis_gcc.h ****   __ASM volatile ("cpsid i" : : : "memory");
 143:Generated_Source\PSoC6\pdl\cmsis/include/cmsis_gcc.h **** }
 144:Generated_Source\PSoC6\pdl\cmsis/include/cmsis_gcc.h **** 
 145:Generated_Source\PSoC6\pdl\cmsis/include/cmsis_gcc.h **** 
 146:Generated_Source\PSoC6\pdl\cmsis/include/cmsis_gcc.h **** /**
 147:Generated_Source\PSoC6\pdl\cmsis/include/cmsis_gcc.h ****   \brief   Get Control Register
 148:Generated_Source\PSoC6\pdl\cmsis/include/cmsis_gcc.h ****   \details Returns the content of the Control Register.
 149:Generated_Source\PSoC6\pdl\cmsis/include/cmsis_gcc.h ****   \return               Control Register value
 150:Generated_Source\PSoC6\pdl\cmsis/include/cmsis_gcc.h ****  */
 151:Generated_Source\PSoC6\pdl\cmsis/include/cmsis_gcc.h **** __STATIC_FORCEINLINE uint32_t __get_CONTROL(void)
 152:Generated_Source\PSoC6\pdl\cmsis/include/cmsis_gcc.h **** {
 153:Generated_Source\PSoC6\pdl\cmsis/include/cmsis_gcc.h ****   uint32_t result;
 154:Generated_Source\PSoC6\pdl\cmsis/include/cmsis_gcc.h **** 
 155:Generated_Source\PSoC6\pdl\cmsis/include/cmsis_gcc.h ****   __ASM volatile ("MRS %0, control" : "=r" (result) );
 156:Generated_Source\PSoC6\pdl\cmsis/include/cmsis_gcc.h ****   return(result);
 157:Generated_Source\PSoC6\pdl\cmsis/include/cmsis_gcc.h **** }
 158:Generated_Source\PSoC6\pdl\cmsis/include/cmsis_gcc.h **** 
 159:Generated_Source\PSoC6\pdl\cmsis/include/cmsis_gcc.h **** 
 160:Generated_Source\PSoC6\pdl\cmsis/include/cmsis_gcc.h **** #if (defined (__ARM_FEATURE_CMSE ) && (__ARM_FEATURE_CMSE == 3))
 161:Generated_Source\PSoC6\pdl\cmsis/include/cmsis_gcc.h **** /**
 162:Generated_Source\PSoC6\pdl\cmsis/include/cmsis_gcc.h ****   \brief   Get Control Register (non-secure)
 163:Generated_Source\PSoC6\pdl\cmsis/include/cmsis_gcc.h ****   \details Returns the content of the non-secure Control Register when in secure mode.
 164:Generated_Source\PSoC6\pdl\cmsis/include/cmsis_gcc.h ****   \return               non-secure Control Register value
 165:Generated_Source\PSoC6\pdl\cmsis/include/cmsis_gcc.h ****  */
 166:Generated_Source\PSoC6\pdl\cmsis/include/cmsis_gcc.h **** __STATIC_FORCEINLINE uint32_t __TZ_get_CONTROL_NS(void)
 167:Generated_Source\PSoC6\pdl\cmsis/include/cmsis_gcc.h **** {
 168:Generated_Source\PSoC6\pdl\cmsis/include/cmsis_gcc.h ****   uint32_t result;
 169:Generated_Source\PSoC6\pdl\cmsis/include/cmsis_gcc.h **** 
 170:Generated_Source\PSoC6\pdl\cmsis/include/cmsis_gcc.h ****   __ASM volatile ("MRS %0, control_ns" : "=r" (result) );
 171:Generated_Source\PSoC6\pdl\cmsis/include/cmsis_gcc.h ****   return(result);
 172:Generated_Source\PSoC6\pdl\cmsis/include/cmsis_gcc.h **** }
 173:Generated_Source\PSoC6\pdl\cmsis/include/cmsis_gcc.h **** #endif
 174:Generated_Source\PSoC6\pdl\cmsis/include/cmsis_gcc.h **** 
 175:Generated_Source\PSoC6\pdl\cmsis/include/cmsis_gcc.h **** 
 176:Generated_Source\PSoC6\pdl\cmsis/include/cmsis_gcc.h **** /**
 177:Generated_Source\PSoC6\pdl\cmsis/include/cmsis_gcc.h ****   \brief   Set Control Register
 178:Generated_Source\PSoC6\pdl\cmsis/include/cmsis_gcc.h ****   \details Writes the given value to the Control Register.
 179:Generated_Source\PSoC6\pdl\cmsis/include/cmsis_gcc.h ****   \param [in]    control  Control Register value to set
 180:Generated_Source\PSoC6\pdl\cmsis/include/cmsis_gcc.h ****  */
 181:Generated_Source\PSoC6\pdl\cmsis/include/cmsis_gcc.h **** __STATIC_FORCEINLINE void __set_CONTROL(uint32_t control)
 182:Generated_Source\PSoC6\pdl\cmsis/include/cmsis_gcc.h **** {
 183:Generated_Source\PSoC6\pdl\cmsis/include/cmsis_gcc.h ****   __ASM volatile ("MSR control, %0" : : "r" (control) : "memory");
 184:Generated_Source\PSoC6\pdl\cmsis/include/cmsis_gcc.h **** }
 185:Generated_Source\PSoC6\pdl\cmsis/include/cmsis_gcc.h **** 
 186:Generated_Source\PSoC6\pdl\cmsis/include/cmsis_gcc.h **** 
 187:Generated_Source\PSoC6\pdl\cmsis/include/cmsis_gcc.h **** #if (defined (__ARM_FEATURE_CMSE ) && (__ARM_FEATURE_CMSE == 3))
 188:Generated_Source\PSoC6\pdl\cmsis/include/cmsis_gcc.h **** /**
 189:Generated_Source\PSoC6\pdl\cmsis/include/cmsis_gcc.h ****   \brief   Set Control Register (non-secure)
 190:Generated_Source\PSoC6\pdl\cmsis/include/cmsis_gcc.h ****   \details Writes the given value to the non-secure Control Register when in secure state.
 191:Generated_Source\PSoC6\pdl\cmsis/include/cmsis_gcc.h ****   \param [in]    control  Control Register value to set
ARM GAS  C:\Users\Vishwas\AppData\Local\Temp\ccDHXqd6.s 			page 21


 192:Generated_Source\PSoC6\pdl\cmsis/include/cmsis_gcc.h ****  */
 193:Generated_Source\PSoC6\pdl\cmsis/include/cmsis_gcc.h **** __STATIC_FORCEINLINE void __TZ_set_CONTROL_NS(uint32_t control)
 194:Generated_Source\PSoC6\pdl\cmsis/include/cmsis_gcc.h **** {
 195:Generated_Source\PSoC6\pdl\cmsis/include/cmsis_gcc.h ****   __ASM volatile ("MSR control_ns, %0" : : "r" (control) : "memory");
 196:Generated_Source\PSoC6\pdl\cmsis/include/cmsis_gcc.h **** }
 197:Generated_Source\PSoC6\pdl\cmsis/include/cmsis_gcc.h **** #endif
 198:Generated_Source\PSoC6\pdl\cmsis/include/cmsis_gcc.h **** 
 199:Generated_Source\PSoC6\pdl\cmsis/include/cmsis_gcc.h **** 
 200:Generated_Source\PSoC6\pdl\cmsis/include/cmsis_gcc.h **** /**
 201:Generated_Source\PSoC6\pdl\cmsis/include/cmsis_gcc.h ****   \brief   Get IPSR Register
 202:Generated_Source\PSoC6\pdl\cmsis/include/cmsis_gcc.h ****   \details Returns the content of the IPSR Register.
 203:Generated_Source\PSoC6\pdl\cmsis/include/cmsis_gcc.h ****   \return               IPSR Register value
 204:Generated_Source\PSoC6\pdl\cmsis/include/cmsis_gcc.h ****  */
 205:Generated_Source\PSoC6\pdl\cmsis/include/cmsis_gcc.h **** __STATIC_FORCEINLINE uint32_t __get_IPSR(void)
 206:Generated_Source\PSoC6\pdl\cmsis/include/cmsis_gcc.h **** {
 207:Generated_Source\PSoC6\pdl\cmsis/include/cmsis_gcc.h ****   uint32_t result;
 208:Generated_Source\PSoC6\pdl\cmsis/include/cmsis_gcc.h **** 
 209:Generated_Source\PSoC6\pdl\cmsis/include/cmsis_gcc.h ****   __ASM volatile ("MRS %0, ipsr" : "=r" (result) );
 210:Generated_Source\PSoC6\pdl\cmsis/include/cmsis_gcc.h ****   return(result);
 211:Generated_Source\PSoC6\pdl\cmsis/include/cmsis_gcc.h **** }
 212:Generated_Source\PSoC6\pdl\cmsis/include/cmsis_gcc.h **** 
 213:Generated_Source\PSoC6\pdl\cmsis/include/cmsis_gcc.h **** 
 214:Generated_Source\PSoC6\pdl\cmsis/include/cmsis_gcc.h **** /**
 215:Generated_Source\PSoC6\pdl\cmsis/include/cmsis_gcc.h ****   \brief   Get APSR Register
 216:Generated_Source\PSoC6\pdl\cmsis/include/cmsis_gcc.h ****   \details Returns the content of the APSR Register.
 217:Generated_Source\PSoC6\pdl\cmsis/include/cmsis_gcc.h ****   \return               APSR Register value
 218:Generated_Source\PSoC6\pdl\cmsis/include/cmsis_gcc.h ****  */
 219:Generated_Source\PSoC6\pdl\cmsis/include/cmsis_gcc.h **** __STATIC_FORCEINLINE uint32_t __get_APSR(void)
 220:Generated_Source\PSoC6\pdl\cmsis/include/cmsis_gcc.h **** {
 221:Generated_Source\PSoC6\pdl\cmsis/include/cmsis_gcc.h ****   uint32_t result;
 222:Generated_Source\PSoC6\pdl\cmsis/include/cmsis_gcc.h **** 
 223:Generated_Source\PSoC6\pdl\cmsis/include/cmsis_gcc.h ****   __ASM volatile ("MRS %0, apsr" : "=r" (result) );
 224:Generated_Source\PSoC6\pdl\cmsis/include/cmsis_gcc.h ****   return(result);
 225:Generated_Source\PSoC6\pdl\cmsis/include/cmsis_gcc.h **** }
 226:Generated_Source\PSoC6\pdl\cmsis/include/cmsis_gcc.h **** 
 227:Generated_Source\PSoC6\pdl\cmsis/include/cmsis_gcc.h **** 
 228:Generated_Source\PSoC6\pdl\cmsis/include/cmsis_gcc.h **** /**
 229:Generated_Source\PSoC6\pdl\cmsis/include/cmsis_gcc.h ****   \brief   Get xPSR Register
 230:Generated_Source\PSoC6\pdl\cmsis/include/cmsis_gcc.h ****   \details Returns the content of the xPSR Register.
 231:Generated_Source\PSoC6\pdl\cmsis/include/cmsis_gcc.h ****   \return               xPSR Register value
 232:Generated_Source\PSoC6\pdl\cmsis/include/cmsis_gcc.h ****  */
 233:Generated_Source\PSoC6\pdl\cmsis/include/cmsis_gcc.h **** __STATIC_FORCEINLINE uint32_t __get_xPSR(void)
 234:Generated_Source\PSoC6\pdl\cmsis/include/cmsis_gcc.h **** {
 235:Generated_Source\PSoC6\pdl\cmsis/include/cmsis_gcc.h ****   uint32_t result;
 236:Generated_Source\PSoC6\pdl\cmsis/include/cmsis_gcc.h **** 
 237:Generated_Source\PSoC6\pdl\cmsis/include/cmsis_gcc.h ****   __ASM volatile ("MRS %0, xpsr" : "=r" (result) );
 238:Generated_Source\PSoC6\pdl\cmsis/include/cmsis_gcc.h ****   return(result);
 239:Generated_Source\PSoC6\pdl\cmsis/include/cmsis_gcc.h **** }
 240:Generated_Source\PSoC6\pdl\cmsis/include/cmsis_gcc.h **** 
 241:Generated_Source\PSoC6\pdl\cmsis/include/cmsis_gcc.h **** 
 242:Generated_Source\PSoC6\pdl\cmsis/include/cmsis_gcc.h **** /**
 243:Generated_Source\PSoC6\pdl\cmsis/include/cmsis_gcc.h ****   \brief   Get Process Stack Pointer
 244:Generated_Source\PSoC6\pdl\cmsis/include/cmsis_gcc.h ****   \details Returns the current value of the Process Stack Pointer (PSP).
 245:Generated_Source\PSoC6\pdl\cmsis/include/cmsis_gcc.h ****   \return               PSP Register value
 246:Generated_Source\PSoC6\pdl\cmsis/include/cmsis_gcc.h ****  */
 247:Generated_Source\PSoC6\pdl\cmsis/include/cmsis_gcc.h **** __STATIC_FORCEINLINE uint32_t __get_PSP(void)
 248:Generated_Source\PSoC6\pdl\cmsis/include/cmsis_gcc.h **** {
ARM GAS  C:\Users\Vishwas\AppData\Local\Temp\ccDHXqd6.s 			page 22


 249:Generated_Source\PSoC6\pdl\cmsis/include/cmsis_gcc.h ****   register uint32_t result;
 250:Generated_Source\PSoC6\pdl\cmsis/include/cmsis_gcc.h **** 
 251:Generated_Source\PSoC6\pdl\cmsis/include/cmsis_gcc.h ****   __ASM volatile ("MRS %0, psp"  : "=r" (result) );
 252:Generated_Source\PSoC6\pdl\cmsis/include/cmsis_gcc.h ****   return(result);
 253:Generated_Source\PSoC6\pdl\cmsis/include/cmsis_gcc.h **** }
 254:Generated_Source\PSoC6\pdl\cmsis/include/cmsis_gcc.h **** 
 255:Generated_Source\PSoC6\pdl\cmsis/include/cmsis_gcc.h **** 
 256:Generated_Source\PSoC6\pdl\cmsis/include/cmsis_gcc.h **** #if (defined (__ARM_FEATURE_CMSE ) && (__ARM_FEATURE_CMSE == 3))
 257:Generated_Source\PSoC6\pdl\cmsis/include/cmsis_gcc.h **** /**
 258:Generated_Source\PSoC6\pdl\cmsis/include/cmsis_gcc.h ****   \brief   Get Process Stack Pointer (non-secure)
 259:Generated_Source\PSoC6\pdl\cmsis/include/cmsis_gcc.h ****   \details Returns the current value of the non-secure Process Stack Pointer (PSP) when in secure s
 260:Generated_Source\PSoC6\pdl\cmsis/include/cmsis_gcc.h ****   \return               PSP Register value
 261:Generated_Source\PSoC6\pdl\cmsis/include/cmsis_gcc.h ****  */
 262:Generated_Source\PSoC6\pdl\cmsis/include/cmsis_gcc.h **** __STATIC_FORCEINLINE uint32_t __TZ_get_PSP_NS(void)
 263:Generated_Source\PSoC6\pdl\cmsis/include/cmsis_gcc.h **** {
 264:Generated_Source\PSoC6\pdl\cmsis/include/cmsis_gcc.h ****   register uint32_t result;
 265:Generated_Source\PSoC6\pdl\cmsis/include/cmsis_gcc.h **** 
 266:Generated_Source\PSoC6\pdl\cmsis/include/cmsis_gcc.h ****   __ASM volatile ("MRS %0, psp_ns"  : "=r" (result) );
 267:Generated_Source\PSoC6\pdl\cmsis/include/cmsis_gcc.h ****   return(result);
 268:Generated_Source\PSoC6\pdl\cmsis/include/cmsis_gcc.h **** }
 269:Generated_Source\PSoC6\pdl\cmsis/include/cmsis_gcc.h **** #endif
 270:Generated_Source\PSoC6\pdl\cmsis/include/cmsis_gcc.h **** 
 271:Generated_Source\PSoC6\pdl\cmsis/include/cmsis_gcc.h **** 
 272:Generated_Source\PSoC6\pdl\cmsis/include/cmsis_gcc.h **** /**
 273:Generated_Source\PSoC6\pdl\cmsis/include/cmsis_gcc.h ****   \brief   Set Process Stack Pointer
 274:Generated_Source\PSoC6\pdl\cmsis/include/cmsis_gcc.h ****   \details Assigns the given value to the Process Stack Pointer (PSP).
 275:Generated_Source\PSoC6\pdl\cmsis/include/cmsis_gcc.h ****   \param [in]    topOfProcStack  Process Stack Pointer value to set
 276:Generated_Source\PSoC6\pdl\cmsis/include/cmsis_gcc.h ****  */
 277:Generated_Source\PSoC6\pdl\cmsis/include/cmsis_gcc.h **** __STATIC_FORCEINLINE void __set_PSP(uint32_t topOfProcStack)
 278:Generated_Source\PSoC6\pdl\cmsis/include/cmsis_gcc.h **** {
 279:Generated_Source\PSoC6\pdl\cmsis/include/cmsis_gcc.h ****   __ASM volatile ("MSR psp, %0" : : "r" (topOfProcStack) : );
 280:Generated_Source\PSoC6\pdl\cmsis/include/cmsis_gcc.h **** }
 281:Generated_Source\PSoC6\pdl\cmsis/include/cmsis_gcc.h **** 
 282:Generated_Source\PSoC6\pdl\cmsis/include/cmsis_gcc.h **** 
 283:Generated_Source\PSoC6\pdl\cmsis/include/cmsis_gcc.h **** #if (defined (__ARM_FEATURE_CMSE ) && (__ARM_FEATURE_CMSE == 3))
 284:Generated_Source\PSoC6\pdl\cmsis/include/cmsis_gcc.h **** /**
 285:Generated_Source\PSoC6\pdl\cmsis/include/cmsis_gcc.h ****   \brief   Set Process Stack Pointer (non-secure)
 286:Generated_Source\PSoC6\pdl\cmsis/include/cmsis_gcc.h ****   \details Assigns the given value to the non-secure Process Stack Pointer (PSP) when in secure sta
 287:Generated_Source\PSoC6\pdl\cmsis/include/cmsis_gcc.h ****   \param [in]    topOfProcStack  Process Stack Pointer value to set
 288:Generated_Source\PSoC6\pdl\cmsis/include/cmsis_gcc.h ****  */
 289:Generated_Source\PSoC6\pdl\cmsis/include/cmsis_gcc.h **** __STATIC_FORCEINLINE void __TZ_set_PSP_NS(uint32_t topOfProcStack)
 290:Generated_Source\PSoC6\pdl\cmsis/include/cmsis_gcc.h **** {
 291:Generated_Source\PSoC6\pdl\cmsis/include/cmsis_gcc.h ****   __ASM volatile ("MSR psp_ns, %0" : : "r" (topOfProcStack) : );
 292:Generated_Source\PSoC6\pdl\cmsis/include/cmsis_gcc.h **** }
 293:Generated_Source\PSoC6\pdl\cmsis/include/cmsis_gcc.h **** #endif
 294:Generated_Source\PSoC6\pdl\cmsis/include/cmsis_gcc.h **** 
 295:Generated_Source\PSoC6\pdl\cmsis/include/cmsis_gcc.h **** 
 296:Generated_Source\PSoC6\pdl\cmsis/include/cmsis_gcc.h **** /**
 297:Generated_Source\PSoC6\pdl\cmsis/include/cmsis_gcc.h ****   \brief   Get Main Stack Pointer
 298:Generated_Source\PSoC6\pdl\cmsis/include/cmsis_gcc.h ****   \details Returns the current value of the Main Stack Pointer (MSP).
 299:Generated_Source\PSoC6\pdl\cmsis/include/cmsis_gcc.h ****   \return               MSP Register value
 300:Generated_Source\PSoC6\pdl\cmsis/include/cmsis_gcc.h ****  */
 301:Generated_Source\PSoC6\pdl\cmsis/include/cmsis_gcc.h **** __STATIC_FORCEINLINE uint32_t __get_MSP(void)
 302:Generated_Source\PSoC6\pdl\cmsis/include/cmsis_gcc.h **** {
 303:Generated_Source\PSoC6\pdl\cmsis/include/cmsis_gcc.h ****   register uint32_t result;
 304:Generated_Source\PSoC6\pdl\cmsis/include/cmsis_gcc.h **** 
 305:Generated_Source\PSoC6\pdl\cmsis/include/cmsis_gcc.h ****   __ASM volatile ("MRS %0, msp" : "=r" (result) );
ARM GAS  C:\Users\Vishwas\AppData\Local\Temp\ccDHXqd6.s 			page 23


 306:Generated_Source\PSoC6\pdl\cmsis/include/cmsis_gcc.h ****   return(result);
 307:Generated_Source\PSoC6\pdl\cmsis/include/cmsis_gcc.h **** }
 308:Generated_Source\PSoC6\pdl\cmsis/include/cmsis_gcc.h **** 
 309:Generated_Source\PSoC6\pdl\cmsis/include/cmsis_gcc.h **** 
 310:Generated_Source\PSoC6\pdl\cmsis/include/cmsis_gcc.h **** #if (defined (__ARM_FEATURE_CMSE ) && (__ARM_FEATURE_CMSE == 3))
 311:Generated_Source\PSoC6\pdl\cmsis/include/cmsis_gcc.h **** /**
 312:Generated_Source\PSoC6\pdl\cmsis/include/cmsis_gcc.h ****   \brief   Get Main Stack Pointer (non-secure)
 313:Generated_Source\PSoC6\pdl\cmsis/include/cmsis_gcc.h ****   \details Returns the current value of the non-secure Main Stack Pointer (MSP) when in secure stat
 314:Generated_Source\PSoC6\pdl\cmsis/include/cmsis_gcc.h ****   \return               MSP Register value
 315:Generated_Source\PSoC6\pdl\cmsis/include/cmsis_gcc.h ****  */
 316:Generated_Source\PSoC6\pdl\cmsis/include/cmsis_gcc.h **** __STATIC_FORCEINLINE uint32_t __TZ_get_MSP_NS(void)
 317:Generated_Source\PSoC6\pdl\cmsis/include/cmsis_gcc.h **** {
 318:Generated_Source\PSoC6\pdl\cmsis/include/cmsis_gcc.h ****   register uint32_t result;
 319:Generated_Source\PSoC6\pdl\cmsis/include/cmsis_gcc.h **** 
 320:Generated_Source\PSoC6\pdl\cmsis/include/cmsis_gcc.h ****   __ASM volatile ("MRS %0, msp_ns" : "=r" (result) );
 321:Generated_Source\PSoC6\pdl\cmsis/include/cmsis_gcc.h ****   return(result);
 322:Generated_Source\PSoC6\pdl\cmsis/include/cmsis_gcc.h **** }
 323:Generated_Source\PSoC6\pdl\cmsis/include/cmsis_gcc.h **** #endif
 324:Generated_Source\PSoC6\pdl\cmsis/include/cmsis_gcc.h **** 
 325:Generated_Source\PSoC6\pdl\cmsis/include/cmsis_gcc.h **** 
 326:Generated_Source\PSoC6\pdl\cmsis/include/cmsis_gcc.h **** /**
 327:Generated_Source\PSoC6\pdl\cmsis/include/cmsis_gcc.h ****   \brief   Set Main Stack Pointer
 328:Generated_Source\PSoC6\pdl\cmsis/include/cmsis_gcc.h ****   \details Assigns the given value to the Main Stack Pointer (MSP).
 329:Generated_Source\PSoC6\pdl\cmsis/include/cmsis_gcc.h ****   \param [in]    topOfMainStack  Main Stack Pointer value to set
 330:Generated_Source\PSoC6\pdl\cmsis/include/cmsis_gcc.h ****  */
 331:Generated_Source\PSoC6\pdl\cmsis/include/cmsis_gcc.h **** __STATIC_FORCEINLINE void __set_MSP(uint32_t topOfMainStack)
 332:Generated_Source\PSoC6\pdl\cmsis/include/cmsis_gcc.h **** {
 333:Generated_Source\PSoC6\pdl\cmsis/include/cmsis_gcc.h ****   __ASM volatile ("MSR msp, %0" : : "r" (topOfMainStack) : );
 334:Generated_Source\PSoC6\pdl\cmsis/include/cmsis_gcc.h **** }
 335:Generated_Source\PSoC6\pdl\cmsis/include/cmsis_gcc.h **** 
 336:Generated_Source\PSoC6\pdl\cmsis/include/cmsis_gcc.h **** 
 337:Generated_Source\PSoC6\pdl\cmsis/include/cmsis_gcc.h **** #if (defined (__ARM_FEATURE_CMSE ) && (__ARM_FEATURE_CMSE == 3))
 338:Generated_Source\PSoC6\pdl\cmsis/include/cmsis_gcc.h **** /**
 339:Generated_Source\PSoC6\pdl\cmsis/include/cmsis_gcc.h ****   \brief   Set Main Stack Pointer (non-secure)
 340:Generated_Source\PSoC6\pdl\cmsis/include/cmsis_gcc.h ****   \details Assigns the given value to the non-secure Main Stack Pointer (MSP) when in secure state.
 341:Generated_Source\PSoC6\pdl\cmsis/include/cmsis_gcc.h ****   \param [in]    topOfMainStack  Main Stack Pointer value to set
 342:Generated_Source\PSoC6\pdl\cmsis/include/cmsis_gcc.h ****  */
 343:Generated_Source\PSoC6\pdl\cmsis/include/cmsis_gcc.h **** __STATIC_FORCEINLINE void __TZ_set_MSP_NS(uint32_t topOfMainStack)
 344:Generated_Source\PSoC6\pdl\cmsis/include/cmsis_gcc.h **** {
 345:Generated_Source\PSoC6\pdl\cmsis/include/cmsis_gcc.h ****   __ASM volatile ("MSR msp_ns, %0" : : "r" (topOfMainStack) : );
 346:Generated_Source\PSoC6\pdl\cmsis/include/cmsis_gcc.h **** }
 347:Generated_Source\PSoC6\pdl\cmsis/include/cmsis_gcc.h **** #endif
 348:Generated_Source\PSoC6\pdl\cmsis/include/cmsis_gcc.h **** 
 349:Generated_Source\PSoC6\pdl\cmsis/include/cmsis_gcc.h **** 
 350:Generated_Source\PSoC6\pdl\cmsis/include/cmsis_gcc.h **** #if (defined (__ARM_FEATURE_CMSE ) && (__ARM_FEATURE_CMSE == 3))
 351:Generated_Source\PSoC6\pdl\cmsis/include/cmsis_gcc.h **** /**
 352:Generated_Source\PSoC6\pdl\cmsis/include/cmsis_gcc.h ****   \brief   Get Stack Pointer (non-secure)
 353:Generated_Source\PSoC6\pdl\cmsis/include/cmsis_gcc.h ****   \details Returns the current value of the non-secure Stack Pointer (SP) when in secure state.
 354:Generated_Source\PSoC6\pdl\cmsis/include/cmsis_gcc.h ****   \return               SP Register value
 355:Generated_Source\PSoC6\pdl\cmsis/include/cmsis_gcc.h ****  */
 356:Generated_Source\PSoC6\pdl\cmsis/include/cmsis_gcc.h **** __STATIC_FORCEINLINE uint32_t __TZ_get_SP_NS(void)
 357:Generated_Source\PSoC6\pdl\cmsis/include/cmsis_gcc.h **** {
 358:Generated_Source\PSoC6\pdl\cmsis/include/cmsis_gcc.h ****   register uint32_t result;
 359:Generated_Source\PSoC6\pdl\cmsis/include/cmsis_gcc.h **** 
 360:Generated_Source\PSoC6\pdl\cmsis/include/cmsis_gcc.h ****   __ASM volatile ("MRS %0, sp_ns" : "=r" (result) );
 361:Generated_Source\PSoC6\pdl\cmsis/include/cmsis_gcc.h ****   return(result);
 362:Generated_Source\PSoC6\pdl\cmsis/include/cmsis_gcc.h **** }
ARM GAS  C:\Users\Vishwas\AppData\Local\Temp\ccDHXqd6.s 			page 24


 363:Generated_Source\PSoC6\pdl\cmsis/include/cmsis_gcc.h **** 
 364:Generated_Source\PSoC6\pdl\cmsis/include/cmsis_gcc.h **** 
 365:Generated_Source\PSoC6\pdl\cmsis/include/cmsis_gcc.h **** /**
 366:Generated_Source\PSoC6\pdl\cmsis/include/cmsis_gcc.h ****   \brief   Set Stack Pointer (non-secure)
 367:Generated_Source\PSoC6\pdl\cmsis/include/cmsis_gcc.h ****   \details Assigns the given value to the non-secure Stack Pointer (SP) when in secure state.
 368:Generated_Source\PSoC6\pdl\cmsis/include/cmsis_gcc.h ****   \param [in]    topOfStack  Stack Pointer value to set
 369:Generated_Source\PSoC6\pdl\cmsis/include/cmsis_gcc.h ****  */
 370:Generated_Source\PSoC6\pdl\cmsis/include/cmsis_gcc.h **** __STATIC_FORCEINLINE void __TZ_set_SP_NS(uint32_t topOfStack)
 371:Generated_Source\PSoC6\pdl\cmsis/include/cmsis_gcc.h **** {
 372:Generated_Source\PSoC6\pdl\cmsis/include/cmsis_gcc.h ****   __ASM volatile ("MSR sp_ns, %0" : : "r" (topOfStack) : );
 373:Generated_Source\PSoC6\pdl\cmsis/include/cmsis_gcc.h **** }
 374:Generated_Source\PSoC6\pdl\cmsis/include/cmsis_gcc.h **** #endif
 375:Generated_Source\PSoC6\pdl\cmsis/include/cmsis_gcc.h **** 
 376:Generated_Source\PSoC6\pdl\cmsis/include/cmsis_gcc.h **** 
 377:Generated_Source\PSoC6\pdl\cmsis/include/cmsis_gcc.h **** /**
 378:Generated_Source\PSoC6\pdl\cmsis/include/cmsis_gcc.h ****   \brief   Get Priority Mask
 379:Generated_Source\PSoC6\pdl\cmsis/include/cmsis_gcc.h ****   \details Returns the current state of the priority mask bit from the Priority Mask Register.
 380:Generated_Source\PSoC6\pdl\cmsis/include/cmsis_gcc.h ****   \return               Priority Mask value
 381:Generated_Source\PSoC6\pdl\cmsis/include/cmsis_gcc.h ****  */
 382:Generated_Source\PSoC6\pdl\cmsis/include/cmsis_gcc.h **** __STATIC_FORCEINLINE uint32_t __get_PRIMASK(void)
 383:Generated_Source\PSoC6\pdl\cmsis/include/cmsis_gcc.h **** {
 384:Generated_Source\PSoC6\pdl\cmsis/include/cmsis_gcc.h ****   uint32_t result;
 385:Generated_Source\PSoC6\pdl\cmsis/include/cmsis_gcc.h **** 
 386:Generated_Source\PSoC6\pdl\cmsis/include/cmsis_gcc.h ****   __ASM volatile ("MRS %0, primask" : "=r" (result) :: "memory");
 387:Generated_Source\PSoC6\pdl\cmsis/include/cmsis_gcc.h ****   return(result);
 388:Generated_Source\PSoC6\pdl\cmsis/include/cmsis_gcc.h **** }
 389:Generated_Source\PSoC6\pdl\cmsis/include/cmsis_gcc.h **** 
 390:Generated_Source\PSoC6\pdl\cmsis/include/cmsis_gcc.h **** 
 391:Generated_Source\PSoC6\pdl\cmsis/include/cmsis_gcc.h **** #if (defined (__ARM_FEATURE_CMSE ) && (__ARM_FEATURE_CMSE == 3))
 392:Generated_Source\PSoC6\pdl\cmsis/include/cmsis_gcc.h **** /**
 393:Generated_Source\PSoC6\pdl\cmsis/include/cmsis_gcc.h ****   \brief   Get Priority Mask (non-secure)
 394:Generated_Source\PSoC6\pdl\cmsis/include/cmsis_gcc.h ****   \details Returns the current state of the non-secure priority mask bit from the Priority Mask Reg
 395:Generated_Source\PSoC6\pdl\cmsis/include/cmsis_gcc.h ****   \return               Priority Mask value
 396:Generated_Source\PSoC6\pdl\cmsis/include/cmsis_gcc.h ****  */
 397:Generated_Source\PSoC6\pdl\cmsis/include/cmsis_gcc.h **** __STATIC_FORCEINLINE uint32_t __TZ_get_PRIMASK_NS(void)
 398:Generated_Source\PSoC6\pdl\cmsis/include/cmsis_gcc.h **** {
 399:Generated_Source\PSoC6\pdl\cmsis/include/cmsis_gcc.h ****   uint32_t result;
 400:Generated_Source\PSoC6\pdl\cmsis/include/cmsis_gcc.h **** 
 401:Generated_Source\PSoC6\pdl\cmsis/include/cmsis_gcc.h ****   __ASM volatile ("MRS %0, primask_ns" : "=r" (result) :: "memory");
 402:Generated_Source\PSoC6\pdl\cmsis/include/cmsis_gcc.h ****   return(result);
 403:Generated_Source\PSoC6\pdl\cmsis/include/cmsis_gcc.h **** }
 404:Generated_Source\PSoC6\pdl\cmsis/include/cmsis_gcc.h **** #endif
 405:Generated_Source\PSoC6\pdl\cmsis/include/cmsis_gcc.h **** 
 406:Generated_Source\PSoC6\pdl\cmsis/include/cmsis_gcc.h **** 
 407:Generated_Source\PSoC6\pdl\cmsis/include/cmsis_gcc.h **** /**
 408:Generated_Source\PSoC6\pdl\cmsis/include/cmsis_gcc.h ****   \brief   Set Priority Mask
 409:Generated_Source\PSoC6\pdl\cmsis/include/cmsis_gcc.h ****   \details Assigns the given value to the Priority Mask Register.
 410:Generated_Source\PSoC6\pdl\cmsis/include/cmsis_gcc.h ****   \param [in]    priMask  Priority Mask
 411:Generated_Source\PSoC6\pdl\cmsis/include/cmsis_gcc.h ****  */
 412:Generated_Source\PSoC6\pdl\cmsis/include/cmsis_gcc.h **** __STATIC_FORCEINLINE void __set_PRIMASK(uint32_t priMask)
 413:Generated_Source\PSoC6\pdl\cmsis/include/cmsis_gcc.h **** {
 414:Generated_Source\PSoC6\pdl\cmsis/include/cmsis_gcc.h ****   __ASM volatile ("MSR primask, %0" : : "r" (priMask) : "memory");
 415:Generated_Source\PSoC6\pdl\cmsis/include/cmsis_gcc.h **** }
 416:Generated_Source\PSoC6\pdl\cmsis/include/cmsis_gcc.h **** 
 417:Generated_Source\PSoC6\pdl\cmsis/include/cmsis_gcc.h **** 
 418:Generated_Source\PSoC6\pdl\cmsis/include/cmsis_gcc.h **** #if (defined (__ARM_FEATURE_CMSE ) && (__ARM_FEATURE_CMSE == 3))
 419:Generated_Source\PSoC6\pdl\cmsis/include/cmsis_gcc.h **** /**
ARM GAS  C:\Users\Vishwas\AppData\Local\Temp\ccDHXqd6.s 			page 25


 420:Generated_Source\PSoC6\pdl\cmsis/include/cmsis_gcc.h ****   \brief   Set Priority Mask (non-secure)
 421:Generated_Source\PSoC6\pdl\cmsis/include/cmsis_gcc.h ****   \details Assigns the given value to the non-secure Priority Mask Register when in secure state.
 422:Generated_Source\PSoC6\pdl\cmsis/include/cmsis_gcc.h ****   \param [in]    priMask  Priority Mask
 423:Generated_Source\PSoC6\pdl\cmsis/include/cmsis_gcc.h ****  */
 424:Generated_Source\PSoC6\pdl\cmsis/include/cmsis_gcc.h **** __STATIC_FORCEINLINE void __TZ_set_PRIMASK_NS(uint32_t priMask)
 425:Generated_Source\PSoC6\pdl\cmsis/include/cmsis_gcc.h **** {
 426:Generated_Source\PSoC6\pdl\cmsis/include/cmsis_gcc.h ****   __ASM volatile ("MSR primask_ns, %0" : : "r" (priMask) : "memory");
 427:Generated_Source\PSoC6\pdl\cmsis/include/cmsis_gcc.h **** }
 428:Generated_Source\PSoC6\pdl\cmsis/include/cmsis_gcc.h **** #endif
 429:Generated_Source\PSoC6\pdl\cmsis/include/cmsis_gcc.h **** 
 430:Generated_Source\PSoC6\pdl\cmsis/include/cmsis_gcc.h **** 
 431:Generated_Source\PSoC6\pdl\cmsis/include/cmsis_gcc.h **** #if ((defined (__ARM_ARCH_7M__      ) && (__ARM_ARCH_7M__      == 1)) || \
 432:Generated_Source\PSoC6\pdl\cmsis/include/cmsis_gcc.h ****      (defined (__ARM_ARCH_7EM__     ) && (__ARM_ARCH_7EM__     == 1)) || \
 433:Generated_Source\PSoC6\pdl\cmsis/include/cmsis_gcc.h ****      (defined (__ARM_ARCH_8M_MAIN__ ) && (__ARM_ARCH_8M_MAIN__ == 1))    )
 434:Generated_Source\PSoC6\pdl\cmsis/include/cmsis_gcc.h **** /**
 435:Generated_Source\PSoC6\pdl\cmsis/include/cmsis_gcc.h ****   \brief   Enable FIQ
 436:Generated_Source\PSoC6\pdl\cmsis/include/cmsis_gcc.h ****   \details Enables FIQ interrupts by clearing the F-bit in the CPSR.
 437:Generated_Source\PSoC6\pdl\cmsis/include/cmsis_gcc.h ****            Can only be executed in Privileged modes.
 438:Generated_Source\PSoC6\pdl\cmsis/include/cmsis_gcc.h ****  */
 439:Generated_Source\PSoC6\pdl\cmsis/include/cmsis_gcc.h **** __STATIC_FORCEINLINE void __enable_fault_irq(void)
 440:Generated_Source\PSoC6\pdl\cmsis/include/cmsis_gcc.h **** {
 441:Generated_Source\PSoC6\pdl\cmsis/include/cmsis_gcc.h ****   __ASM volatile ("cpsie f" : : : "memory");
 442:Generated_Source\PSoC6\pdl\cmsis/include/cmsis_gcc.h **** }
 443:Generated_Source\PSoC6\pdl\cmsis/include/cmsis_gcc.h **** 
 444:Generated_Source\PSoC6\pdl\cmsis/include/cmsis_gcc.h **** 
 445:Generated_Source\PSoC6\pdl\cmsis/include/cmsis_gcc.h **** /**
 446:Generated_Source\PSoC6\pdl\cmsis/include/cmsis_gcc.h ****   \brief   Disable FIQ
 447:Generated_Source\PSoC6\pdl\cmsis/include/cmsis_gcc.h ****   \details Disables FIQ interrupts by setting the F-bit in the CPSR.
 448:Generated_Source\PSoC6\pdl\cmsis/include/cmsis_gcc.h ****            Can only be executed in Privileged modes.
 449:Generated_Source\PSoC6\pdl\cmsis/include/cmsis_gcc.h ****  */
 450:Generated_Source\PSoC6\pdl\cmsis/include/cmsis_gcc.h **** __STATIC_FORCEINLINE void __disable_fault_irq(void)
 451:Generated_Source\PSoC6\pdl\cmsis/include/cmsis_gcc.h **** {
 452:Generated_Source\PSoC6\pdl\cmsis/include/cmsis_gcc.h ****   __ASM volatile ("cpsid f" : : : "memory");
 453:Generated_Source\PSoC6\pdl\cmsis/include/cmsis_gcc.h **** }
 454:Generated_Source\PSoC6\pdl\cmsis/include/cmsis_gcc.h **** 
 455:Generated_Source\PSoC6\pdl\cmsis/include/cmsis_gcc.h **** 
 456:Generated_Source\PSoC6\pdl\cmsis/include/cmsis_gcc.h **** /**
 457:Generated_Source\PSoC6\pdl\cmsis/include/cmsis_gcc.h ****   \brief   Get Base Priority
 458:Generated_Source\PSoC6\pdl\cmsis/include/cmsis_gcc.h ****   \details Returns the current value of the Base Priority register.
 459:Generated_Source\PSoC6\pdl\cmsis/include/cmsis_gcc.h ****   \return               Base Priority register value
 460:Generated_Source\PSoC6\pdl\cmsis/include/cmsis_gcc.h ****  */
 461:Generated_Source\PSoC6\pdl\cmsis/include/cmsis_gcc.h **** __STATIC_FORCEINLINE uint32_t __get_BASEPRI(void)
 462:Generated_Source\PSoC6\pdl\cmsis/include/cmsis_gcc.h **** {
 463:Generated_Source\PSoC6\pdl\cmsis/include/cmsis_gcc.h ****   uint32_t result;
 464:Generated_Source\PSoC6\pdl\cmsis/include/cmsis_gcc.h **** 
 465:Generated_Source\PSoC6\pdl\cmsis/include/cmsis_gcc.h ****   __ASM volatile ("MRS %0, basepri" : "=r" (result) );
 466:Generated_Source\PSoC6\pdl\cmsis/include/cmsis_gcc.h ****   return(result);
 467:Generated_Source\PSoC6\pdl\cmsis/include/cmsis_gcc.h **** }
 468:Generated_Source\PSoC6\pdl\cmsis/include/cmsis_gcc.h **** 
 469:Generated_Source\PSoC6\pdl\cmsis/include/cmsis_gcc.h **** 
 470:Generated_Source\PSoC6\pdl\cmsis/include/cmsis_gcc.h **** #if (defined (__ARM_FEATURE_CMSE ) && (__ARM_FEATURE_CMSE == 3))
 471:Generated_Source\PSoC6\pdl\cmsis/include/cmsis_gcc.h **** /**
 472:Generated_Source\PSoC6\pdl\cmsis/include/cmsis_gcc.h ****   \brief   Get Base Priority (non-secure)
 473:Generated_Source\PSoC6\pdl\cmsis/include/cmsis_gcc.h ****   \details Returns the current value of the non-secure Base Priority register when in secure state.
 474:Generated_Source\PSoC6\pdl\cmsis/include/cmsis_gcc.h ****   \return               Base Priority register value
 475:Generated_Source\PSoC6\pdl\cmsis/include/cmsis_gcc.h ****  */
 476:Generated_Source\PSoC6\pdl\cmsis/include/cmsis_gcc.h **** __STATIC_FORCEINLINE uint32_t __TZ_get_BASEPRI_NS(void)
ARM GAS  C:\Users\Vishwas\AppData\Local\Temp\ccDHXqd6.s 			page 26


 477:Generated_Source\PSoC6\pdl\cmsis/include/cmsis_gcc.h **** {
 478:Generated_Source\PSoC6\pdl\cmsis/include/cmsis_gcc.h ****   uint32_t result;
 479:Generated_Source\PSoC6\pdl\cmsis/include/cmsis_gcc.h **** 
 480:Generated_Source\PSoC6\pdl\cmsis/include/cmsis_gcc.h ****   __ASM volatile ("MRS %0, basepri_ns" : "=r" (result) );
 481:Generated_Source\PSoC6\pdl\cmsis/include/cmsis_gcc.h ****   return(result);
 482:Generated_Source\PSoC6\pdl\cmsis/include/cmsis_gcc.h **** }
 483:Generated_Source\PSoC6\pdl\cmsis/include/cmsis_gcc.h **** #endif
 484:Generated_Source\PSoC6\pdl\cmsis/include/cmsis_gcc.h **** 
 485:Generated_Source\PSoC6\pdl\cmsis/include/cmsis_gcc.h **** 
 486:Generated_Source\PSoC6\pdl\cmsis/include/cmsis_gcc.h **** /**
 487:Generated_Source\PSoC6\pdl\cmsis/include/cmsis_gcc.h ****   \brief   Set Base Priority
 488:Generated_Source\PSoC6\pdl\cmsis/include/cmsis_gcc.h ****   \details Assigns the given value to the Base Priority register.
 489:Generated_Source\PSoC6\pdl\cmsis/include/cmsis_gcc.h ****   \param [in]    basePri  Base Priority value to set
 490:Generated_Source\PSoC6\pdl\cmsis/include/cmsis_gcc.h ****  */
 491:Generated_Source\PSoC6\pdl\cmsis/include/cmsis_gcc.h **** __STATIC_FORCEINLINE void __set_BASEPRI(uint32_t basePri)
 492:Generated_Source\PSoC6\pdl\cmsis/include/cmsis_gcc.h **** {
 493:Generated_Source\PSoC6\pdl\cmsis/include/cmsis_gcc.h ****   __ASM volatile ("MSR basepri, %0" : : "r" (basePri) : "memory");
 494:Generated_Source\PSoC6\pdl\cmsis/include/cmsis_gcc.h **** }
 495:Generated_Source\PSoC6\pdl\cmsis/include/cmsis_gcc.h **** 
 496:Generated_Source\PSoC6\pdl\cmsis/include/cmsis_gcc.h **** 
 497:Generated_Source\PSoC6\pdl\cmsis/include/cmsis_gcc.h **** #if (defined (__ARM_FEATURE_CMSE ) && (__ARM_FEATURE_CMSE == 3))
 498:Generated_Source\PSoC6\pdl\cmsis/include/cmsis_gcc.h **** /**
 499:Generated_Source\PSoC6\pdl\cmsis/include/cmsis_gcc.h ****   \brief   Set Base Priority (non-secure)
 500:Generated_Source\PSoC6\pdl\cmsis/include/cmsis_gcc.h ****   \details Assigns the given value to the non-secure Base Priority register when in secure state.
 501:Generated_Source\PSoC6\pdl\cmsis/include/cmsis_gcc.h ****   \param [in]    basePri  Base Priority value to set
 502:Generated_Source\PSoC6\pdl\cmsis/include/cmsis_gcc.h ****  */
 503:Generated_Source\PSoC6\pdl\cmsis/include/cmsis_gcc.h **** __STATIC_FORCEINLINE void __TZ_set_BASEPRI_NS(uint32_t basePri)
 504:Generated_Source\PSoC6\pdl\cmsis/include/cmsis_gcc.h **** {
 505:Generated_Source\PSoC6\pdl\cmsis/include/cmsis_gcc.h ****   __ASM volatile ("MSR basepri_ns, %0" : : "r" (basePri) : "memory");
 506:Generated_Source\PSoC6\pdl\cmsis/include/cmsis_gcc.h **** }
 507:Generated_Source\PSoC6\pdl\cmsis/include/cmsis_gcc.h **** #endif
 508:Generated_Source\PSoC6\pdl\cmsis/include/cmsis_gcc.h **** 
 509:Generated_Source\PSoC6\pdl\cmsis/include/cmsis_gcc.h **** 
 510:Generated_Source\PSoC6\pdl\cmsis/include/cmsis_gcc.h **** /**
 511:Generated_Source\PSoC6\pdl\cmsis/include/cmsis_gcc.h ****   \brief   Set Base Priority with condition
 512:Generated_Source\PSoC6\pdl\cmsis/include/cmsis_gcc.h ****   \details Assigns the given value to the Base Priority register only if BASEPRI masking is disable
 513:Generated_Source\PSoC6\pdl\cmsis/include/cmsis_gcc.h ****            or the new value increases the BASEPRI priority level.
 514:Generated_Source\PSoC6\pdl\cmsis/include/cmsis_gcc.h ****   \param [in]    basePri  Base Priority value to set
 515:Generated_Source\PSoC6\pdl\cmsis/include/cmsis_gcc.h ****  */
 516:Generated_Source\PSoC6\pdl\cmsis/include/cmsis_gcc.h **** __STATIC_FORCEINLINE void __set_BASEPRI_MAX(uint32_t basePri)
 517:Generated_Source\PSoC6\pdl\cmsis/include/cmsis_gcc.h **** {
 518:Generated_Source\PSoC6\pdl\cmsis/include/cmsis_gcc.h ****   __ASM volatile ("MSR basepri_max, %0" : : "r" (basePri) : "memory");
 519:Generated_Source\PSoC6\pdl\cmsis/include/cmsis_gcc.h **** }
 520:Generated_Source\PSoC6\pdl\cmsis/include/cmsis_gcc.h **** 
 521:Generated_Source\PSoC6\pdl\cmsis/include/cmsis_gcc.h **** 
 522:Generated_Source\PSoC6\pdl\cmsis/include/cmsis_gcc.h **** /**
 523:Generated_Source\PSoC6\pdl\cmsis/include/cmsis_gcc.h ****   \brief   Get Fault Mask
 524:Generated_Source\PSoC6\pdl\cmsis/include/cmsis_gcc.h ****   \details Returns the current value of the Fault Mask register.
 525:Generated_Source\PSoC6\pdl\cmsis/include/cmsis_gcc.h ****   \return               Fault Mask register value
 526:Generated_Source\PSoC6\pdl\cmsis/include/cmsis_gcc.h ****  */
 527:Generated_Source\PSoC6\pdl\cmsis/include/cmsis_gcc.h **** __STATIC_FORCEINLINE uint32_t __get_FAULTMASK(void)
 528:Generated_Source\PSoC6\pdl\cmsis/include/cmsis_gcc.h **** {
 529:Generated_Source\PSoC6\pdl\cmsis/include/cmsis_gcc.h ****   uint32_t result;
 530:Generated_Source\PSoC6\pdl\cmsis/include/cmsis_gcc.h **** 
 531:Generated_Source\PSoC6\pdl\cmsis/include/cmsis_gcc.h ****   __ASM volatile ("MRS %0, faultmask" : "=r" (result) );
 532:Generated_Source\PSoC6\pdl\cmsis/include/cmsis_gcc.h ****   return(result);
 533:Generated_Source\PSoC6\pdl\cmsis/include/cmsis_gcc.h **** }
ARM GAS  C:\Users\Vishwas\AppData\Local\Temp\ccDHXqd6.s 			page 27


 534:Generated_Source\PSoC6\pdl\cmsis/include/cmsis_gcc.h **** 
 535:Generated_Source\PSoC6\pdl\cmsis/include/cmsis_gcc.h **** 
 536:Generated_Source\PSoC6\pdl\cmsis/include/cmsis_gcc.h **** #if (defined (__ARM_FEATURE_CMSE ) && (__ARM_FEATURE_CMSE == 3))
 537:Generated_Source\PSoC6\pdl\cmsis/include/cmsis_gcc.h **** /**
 538:Generated_Source\PSoC6\pdl\cmsis/include/cmsis_gcc.h ****   \brief   Get Fault Mask (non-secure)
 539:Generated_Source\PSoC6\pdl\cmsis/include/cmsis_gcc.h ****   \details Returns the current value of the non-secure Fault Mask register when in secure state.
 540:Generated_Source\PSoC6\pdl\cmsis/include/cmsis_gcc.h ****   \return               Fault Mask register value
 541:Generated_Source\PSoC6\pdl\cmsis/include/cmsis_gcc.h ****  */
 542:Generated_Source\PSoC6\pdl\cmsis/include/cmsis_gcc.h **** __STATIC_FORCEINLINE uint32_t __TZ_get_FAULTMASK_NS(void)
 543:Generated_Source\PSoC6\pdl\cmsis/include/cmsis_gcc.h **** {
 544:Generated_Source\PSoC6\pdl\cmsis/include/cmsis_gcc.h ****   uint32_t result;
 545:Generated_Source\PSoC6\pdl\cmsis/include/cmsis_gcc.h **** 
 546:Generated_Source\PSoC6\pdl\cmsis/include/cmsis_gcc.h ****   __ASM volatile ("MRS %0, faultmask_ns" : "=r" (result) );
 547:Generated_Source\PSoC6\pdl\cmsis/include/cmsis_gcc.h ****   return(result);
 548:Generated_Source\PSoC6\pdl\cmsis/include/cmsis_gcc.h **** }
 549:Generated_Source\PSoC6\pdl\cmsis/include/cmsis_gcc.h **** #endif
 550:Generated_Source\PSoC6\pdl\cmsis/include/cmsis_gcc.h **** 
 551:Generated_Source\PSoC6\pdl\cmsis/include/cmsis_gcc.h **** 
 552:Generated_Source\PSoC6\pdl\cmsis/include/cmsis_gcc.h **** /**
 553:Generated_Source\PSoC6\pdl\cmsis/include/cmsis_gcc.h ****   \brief   Set Fault Mask
 554:Generated_Source\PSoC6\pdl\cmsis/include/cmsis_gcc.h ****   \details Assigns the given value to the Fault Mask register.
 555:Generated_Source\PSoC6\pdl\cmsis/include/cmsis_gcc.h ****   \param [in]    faultMask  Fault Mask value to set
 556:Generated_Source\PSoC6\pdl\cmsis/include/cmsis_gcc.h ****  */
 557:Generated_Source\PSoC6\pdl\cmsis/include/cmsis_gcc.h **** __STATIC_FORCEINLINE void __set_FAULTMASK(uint32_t faultMask)
 558:Generated_Source\PSoC6\pdl\cmsis/include/cmsis_gcc.h **** {
 559:Generated_Source\PSoC6\pdl\cmsis/include/cmsis_gcc.h ****   __ASM volatile ("MSR faultmask, %0" : : "r" (faultMask) : "memory");
 560:Generated_Source\PSoC6\pdl\cmsis/include/cmsis_gcc.h **** }
 561:Generated_Source\PSoC6\pdl\cmsis/include/cmsis_gcc.h **** 
 562:Generated_Source\PSoC6\pdl\cmsis/include/cmsis_gcc.h **** 
 563:Generated_Source\PSoC6\pdl\cmsis/include/cmsis_gcc.h **** #if (defined (__ARM_FEATURE_CMSE ) && (__ARM_FEATURE_CMSE == 3))
 564:Generated_Source\PSoC6\pdl\cmsis/include/cmsis_gcc.h **** /**
 565:Generated_Source\PSoC6\pdl\cmsis/include/cmsis_gcc.h ****   \brief   Set Fault Mask (non-secure)
 566:Generated_Source\PSoC6\pdl\cmsis/include/cmsis_gcc.h ****   \details Assigns the given value to the non-secure Fault Mask register when in secure state.
 567:Generated_Source\PSoC6\pdl\cmsis/include/cmsis_gcc.h ****   \param [in]    faultMask  Fault Mask value to set
 568:Generated_Source\PSoC6\pdl\cmsis/include/cmsis_gcc.h ****  */
 569:Generated_Source\PSoC6\pdl\cmsis/include/cmsis_gcc.h **** __STATIC_FORCEINLINE void __TZ_set_FAULTMASK_NS(uint32_t faultMask)
 570:Generated_Source\PSoC6\pdl\cmsis/include/cmsis_gcc.h **** {
 571:Generated_Source\PSoC6\pdl\cmsis/include/cmsis_gcc.h ****   __ASM volatile ("MSR faultmask_ns, %0" : : "r" (faultMask) : "memory");
 572:Generated_Source\PSoC6\pdl\cmsis/include/cmsis_gcc.h **** }
 573:Generated_Source\PSoC6\pdl\cmsis/include/cmsis_gcc.h **** #endif
 574:Generated_Source\PSoC6\pdl\cmsis/include/cmsis_gcc.h **** 
 575:Generated_Source\PSoC6\pdl\cmsis/include/cmsis_gcc.h **** #endif /* ((defined (__ARM_ARCH_7M__      ) && (__ARM_ARCH_7M__      == 1)) || \
 576:Generated_Source\PSoC6\pdl\cmsis/include/cmsis_gcc.h ****            (defined (__ARM_ARCH_7EM__     ) && (__ARM_ARCH_7EM__     == 1)) || \
 577:Generated_Source\PSoC6\pdl\cmsis/include/cmsis_gcc.h ****            (defined (__ARM_ARCH_8M_MAIN__ ) && (__ARM_ARCH_8M_MAIN__ == 1))    ) */
 578:Generated_Source\PSoC6\pdl\cmsis/include/cmsis_gcc.h **** 
 579:Generated_Source\PSoC6\pdl\cmsis/include/cmsis_gcc.h **** 
 580:Generated_Source\PSoC6\pdl\cmsis/include/cmsis_gcc.h **** #if ((defined (__ARM_ARCH_8M_MAIN__ ) && (__ARM_ARCH_8M_MAIN__ == 1)) || \
 581:Generated_Source\PSoC6\pdl\cmsis/include/cmsis_gcc.h ****      (defined (__ARM_ARCH_8M_BASE__ ) && (__ARM_ARCH_8M_BASE__ == 1))    )
 582:Generated_Source\PSoC6\pdl\cmsis/include/cmsis_gcc.h **** 
 583:Generated_Source\PSoC6\pdl\cmsis/include/cmsis_gcc.h **** /**
 584:Generated_Source\PSoC6\pdl\cmsis/include/cmsis_gcc.h ****   \brief   Get Process Stack Pointer Limit
 585:Generated_Source\PSoC6\pdl\cmsis/include/cmsis_gcc.h ****   Devices without ARMv8-M Main Extensions (i.e. Cortex-M23) lack the non-secure
 586:Generated_Source\PSoC6\pdl\cmsis/include/cmsis_gcc.h ****   Stack Pointer Limit register hence zero is returned always in non-secure
 587:Generated_Source\PSoC6\pdl\cmsis/include/cmsis_gcc.h ****   mode.
 588:Generated_Source\PSoC6\pdl\cmsis/include/cmsis_gcc.h ****   
 589:Generated_Source\PSoC6\pdl\cmsis/include/cmsis_gcc.h ****   \details Returns the current value of the Process Stack Pointer Limit (PSPLIM).
 590:Generated_Source\PSoC6\pdl\cmsis/include/cmsis_gcc.h ****   \return               PSPLIM Register value
ARM GAS  C:\Users\Vishwas\AppData\Local\Temp\ccDHXqd6.s 			page 28


 591:Generated_Source\PSoC6\pdl\cmsis/include/cmsis_gcc.h ****  */
 592:Generated_Source\PSoC6\pdl\cmsis/include/cmsis_gcc.h **** __STATIC_FORCEINLINE uint32_t __get_PSPLIM(void)
 593:Generated_Source\PSoC6\pdl\cmsis/include/cmsis_gcc.h **** {
 594:Generated_Source\PSoC6\pdl\cmsis/include/cmsis_gcc.h **** #if (!(defined (__ARM_ARCH_8M_MAIN__ ) && (__ARM_ARCH_8M_MAIN__ == 1)) && \
 595:Generated_Source\PSoC6\pdl\cmsis/include/cmsis_gcc.h ****     (!defined (__ARM_FEATURE_CMSE) || (__ARM_FEATURE_CMSE < 3)))
 596:Generated_Source\PSoC6\pdl\cmsis/include/cmsis_gcc.h ****     // without main extensions, the non-secure PSPLIM is RAZ/WI
 597:Generated_Source\PSoC6\pdl\cmsis/include/cmsis_gcc.h ****   return 0U;
 598:Generated_Source\PSoC6\pdl\cmsis/include/cmsis_gcc.h **** #else
 599:Generated_Source\PSoC6\pdl\cmsis/include/cmsis_gcc.h ****   register uint32_t result;
 600:Generated_Source\PSoC6\pdl\cmsis/include/cmsis_gcc.h ****   __ASM volatile ("MRS %0, psplim"  : "=r" (result) );
 601:Generated_Source\PSoC6\pdl\cmsis/include/cmsis_gcc.h ****   return result;
 602:Generated_Source\PSoC6\pdl\cmsis/include/cmsis_gcc.h **** #endif
 603:Generated_Source\PSoC6\pdl\cmsis/include/cmsis_gcc.h **** }
 604:Generated_Source\PSoC6\pdl\cmsis/include/cmsis_gcc.h **** 
 605:Generated_Source\PSoC6\pdl\cmsis/include/cmsis_gcc.h **** #if (defined (__ARM_FEATURE_CMSE) && (__ARM_FEATURE_CMSE == 3))
 606:Generated_Source\PSoC6\pdl\cmsis/include/cmsis_gcc.h **** /**
 607:Generated_Source\PSoC6\pdl\cmsis/include/cmsis_gcc.h ****   \brief   Get Process Stack Pointer Limit (non-secure)
 608:Generated_Source\PSoC6\pdl\cmsis/include/cmsis_gcc.h ****   Devices without ARMv8-M Main Extensions (i.e. Cortex-M23) lack the non-secure
 609:Generated_Source\PSoC6\pdl\cmsis/include/cmsis_gcc.h ****   Stack Pointer Limit register hence zero is returned always.
 610:Generated_Source\PSoC6\pdl\cmsis/include/cmsis_gcc.h **** 
 611:Generated_Source\PSoC6\pdl\cmsis/include/cmsis_gcc.h ****   \details Returns the current value of the non-secure Process Stack Pointer Limit (PSPLIM) when in
 612:Generated_Source\PSoC6\pdl\cmsis/include/cmsis_gcc.h ****   \return               PSPLIM Register value
 613:Generated_Source\PSoC6\pdl\cmsis/include/cmsis_gcc.h ****  */
 614:Generated_Source\PSoC6\pdl\cmsis/include/cmsis_gcc.h **** __STATIC_FORCEINLINE uint32_t __TZ_get_PSPLIM_NS(void)
 615:Generated_Source\PSoC6\pdl\cmsis/include/cmsis_gcc.h **** {
 616:Generated_Source\PSoC6\pdl\cmsis/include/cmsis_gcc.h **** #if (!(defined (__ARM_ARCH_8M_MAIN__ ) && (__ARM_ARCH_8M_MAIN__ == 1)))
 617:Generated_Source\PSoC6\pdl\cmsis/include/cmsis_gcc.h ****   // without main extensions, the non-secure PSPLIM is RAZ/WI
 618:Generated_Source\PSoC6\pdl\cmsis/include/cmsis_gcc.h ****   return 0U;
 619:Generated_Source\PSoC6\pdl\cmsis/include/cmsis_gcc.h **** #else
 620:Generated_Source\PSoC6\pdl\cmsis/include/cmsis_gcc.h ****   register uint32_t result;
 621:Generated_Source\PSoC6\pdl\cmsis/include/cmsis_gcc.h ****   __ASM volatile ("MRS %0, psplim_ns"  : "=r" (result) );
 622:Generated_Source\PSoC6\pdl\cmsis/include/cmsis_gcc.h ****   return result;
 623:Generated_Source\PSoC6\pdl\cmsis/include/cmsis_gcc.h **** #endif
 624:Generated_Source\PSoC6\pdl\cmsis/include/cmsis_gcc.h **** }
 625:Generated_Source\PSoC6\pdl\cmsis/include/cmsis_gcc.h **** #endif
 626:Generated_Source\PSoC6\pdl\cmsis/include/cmsis_gcc.h **** 
 627:Generated_Source\PSoC6\pdl\cmsis/include/cmsis_gcc.h **** 
 628:Generated_Source\PSoC6\pdl\cmsis/include/cmsis_gcc.h **** /**
 629:Generated_Source\PSoC6\pdl\cmsis/include/cmsis_gcc.h ****   \brief   Set Process Stack Pointer Limit
 630:Generated_Source\PSoC6\pdl\cmsis/include/cmsis_gcc.h ****   Devices without ARMv8-M Main Extensions (i.e. Cortex-M23) lack the non-secure
 631:Generated_Source\PSoC6\pdl\cmsis/include/cmsis_gcc.h ****   Stack Pointer Limit register hence the write is silently ignored in non-secure
 632:Generated_Source\PSoC6\pdl\cmsis/include/cmsis_gcc.h ****   mode.
 633:Generated_Source\PSoC6\pdl\cmsis/include/cmsis_gcc.h ****   
 634:Generated_Source\PSoC6\pdl\cmsis/include/cmsis_gcc.h ****   \details Assigns the given value to the Process Stack Pointer Limit (PSPLIM).
 635:Generated_Source\PSoC6\pdl\cmsis/include/cmsis_gcc.h ****   \param [in]    ProcStackPtrLimit  Process Stack Pointer Limit value to set
 636:Generated_Source\PSoC6\pdl\cmsis/include/cmsis_gcc.h ****  */
 637:Generated_Source\PSoC6\pdl\cmsis/include/cmsis_gcc.h **** __STATIC_FORCEINLINE void __set_PSPLIM(uint32_t ProcStackPtrLimit)
 638:Generated_Source\PSoC6\pdl\cmsis/include/cmsis_gcc.h **** {
 639:Generated_Source\PSoC6\pdl\cmsis/include/cmsis_gcc.h **** #if (!(defined (__ARM_ARCH_8M_MAIN__ ) && (__ARM_ARCH_8M_MAIN__ == 1)) && \
 640:Generated_Source\PSoC6\pdl\cmsis/include/cmsis_gcc.h ****     (!defined (__ARM_FEATURE_CMSE) || (__ARM_FEATURE_CMSE < 3)))
 641:Generated_Source\PSoC6\pdl\cmsis/include/cmsis_gcc.h ****   // without main extensions, the non-secure PSPLIM is RAZ/WI
 642:Generated_Source\PSoC6\pdl\cmsis/include/cmsis_gcc.h ****   (void)ProcStackPtrLimit;
 643:Generated_Source\PSoC6\pdl\cmsis/include/cmsis_gcc.h **** #else
 644:Generated_Source\PSoC6\pdl\cmsis/include/cmsis_gcc.h ****   __ASM volatile ("MSR psplim, %0" : : "r" (ProcStackPtrLimit));
 645:Generated_Source\PSoC6\pdl\cmsis/include/cmsis_gcc.h **** #endif
 646:Generated_Source\PSoC6\pdl\cmsis/include/cmsis_gcc.h **** }
 647:Generated_Source\PSoC6\pdl\cmsis/include/cmsis_gcc.h **** 
ARM GAS  C:\Users\Vishwas\AppData\Local\Temp\ccDHXqd6.s 			page 29


 648:Generated_Source\PSoC6\pdl\cmsis/include/cmsis_gcc.h **** 
 649:Generated_Source\PSoC6\pdl\cmsis/include/cmsis_gcc.h **** #if (defined (__ARM_FEATURE_CMSE  ) && (__ARM_FEATURE_CMSE   == 3))
 650:Generated_Source\PSoC6\pdl\cmsis/include/cmsis_gcc.h **** /**
 651:Generated_Source\PSoC6\pdl\cmsis/include/cmsis_gcc.h ****   \brief   Set Process Stack Pointer (non-secure)
 652:Generated_Source\PSoC6\pdl\cmsis/include/cmsis_gcc.h ****   Devices without ARMv8-M Main Extensions (i.e. Cortex-M23) lack the non-secure
 653:Generated_Source\PSoC6\pdl\cmsis/include/cmsis_gcc.h ****   Stack Pointer Limit register hence the write is silently ignored.
 654:Generated_Source\PSoC6\pdl\cmsis/include/cmsis_gcc.h **** 
 655:Generated_Source\PSoC6\pdl\cmsis/include/cmsis_gcc.h ****   \details Assigns the given value to the non-secure Process Stack Pointer Limit (PSPLIM) when in s
 656:Generated_Source\PSoC6\pdl\cmsis/include/cmsis_gcc.h ****   \param [in]    ProcStackPtrLimit  Process Stack Pointer Limit value to set
 657:Generated_Source\PSoC6\pdl\cmsis/include/cmsis_gcc.h ****  */
 658:Generated_Source\PSoC6\pdl\cmsis/include/cmsis_gcc.h **** __STATIC_FORCEINLINE void __TZ_set_PSPLIM_NS(uint32_t ProcStackPtrLimit)
 659:Generated_Source\PSoC6\pdl\cmsis/include/cmsis_gcc.h **** {
 660:Generated_Source\PSoC6\pdl\cmsis/include/cmsis_gcc.h **** #if (!(defined (__ARM_ARCH_8M_MAIN__ ) && (__ARM_ARCH_8M_MAIN__ == 1)))
 661:Generated_Source\PSoC6\pdl\cmsis/include/cmsis_gcc.h ****   // without main extensions, the non-secure PSPLIM is RAZ/WI
 662:Generated_Source\PSoC6\pdl\cmsis/include/cmsis_gcc.h ****   (void)ProcStackPtrLimit;
 663:Generated_Source\PSoC6\pdl\cmsis/include/cmsis_gcc.h **** #else
 664:Generated_Source\PSoC6\pdl\cmsis/include/cmsis_gcc.h ****   __ASM volatile ("MSR psplim_ns, %0\n" : : "r" (ProcStackPtrLimit));
 665:Generated_Source\PSoC6\pdl\cmsis/include/cmsis_gcc.h **** #endif
 666:Generated_Source\PSoC6\pdl\cmsis/include/cmsis_gcc.h **** }
 667:Generated_Source\PSoC6\pdl\cmsis/include/cmsis_gcc.h **** #endif
 668:Generated_Source\PSoC6\pdl\cmsis/include/cmsis_gcc.h **** 
 669:Generated_Source\PSoC6\pdl\cmsis/include/cmsis_gcc.h **** 
 670:Generated_Source\PSoC6\pdl\cmsis/include/cmsis_gcc.h **** /**
 671:Generated_Source\PSoC6\pdl\cmsis/include/cmsis_gcc.h ****   \brief   Get Main Stack Pointer Limit
 672:Generated_Source\PSoC6\pdl\cmsis/include/cmsis_gcc.h ****   Devices without ARMv8-M Main Extensions (i.e. Cortex-M23) lack the non-secure
 673:Generated_Source\PSoC6\pdl\cmsis/include/cmsis_gcc.h ****   Stack Pointer Limit register hence zero is returned always in non-secure
 674:Generated_Source\PSoC6\pdl\cmsis/include/cmsis_gcc.h ****   mode.
 675:Generated_Source\PSoC6\pdl\cmsis/include/cmsis_gcc.h **** 
 676:Generated_Source\PSoC6\pdl\cmsis/include/cmsis_gcc.h ****   \details Returns the current value of the Main Stack Pointer Limit (MSPLIM).
 677:Generated_Source\PSoC6\pdl\cmsis/include/cmsis_gcc.h ****   \return               MSPLIM Register value
 678:Generated_Source\PSoC6\pdl\cmsis/include/cmsis_gcc.h ****  */
 679:Generated_Source\PSoC6\pdl\cmsis/include/cmsis_gcc.h **** __STATIC_FORCEINLINE uint32_t __get_MSPLIM(void)
 680:Generated_Source\PSoC6\pdl\cmsis/include/cmsis_gcc.h **** {
 681:Generated_Source\PSoC6\pdl\cmsis/include/cmsis_gcc.h **** #if (!(defined (__ARM_ARCH_8M_MAIN__ ) && (__ARM_ARCH_8M_MAIN__ == 1)) && \
 682:Generated_Source\PSoC6\pdl\cmsis/include/cmsis_gcc.h ****     (!defined (__ARM_FEATURE_CMSE) || (__ARM_FEATURE_CMSE < 3)))
 683:Generated_Source\PSoC6\pdl\cmsis/include/cmsis_gcc.h ****   // without main extensions, the non-secure MSPLIM is RAZ/WI
 684:Generated_Source\PSoC6\pdl\cmsis/include/cmsis_gcc.h ****   return 0U;
 685:Generated_Source\PSoC6\pdl\cmsis/include/cmsis_gcc.h **** #else
 686:Generated_Source\PSoC6\pdl\cmsis/include/cmsis_gcc.h ****   register uint32_t result;
 687:Generated_Source\PSoC6\pdl\cmsis/include/cmsis_gcc.h ****   __ASM volatile ("MRS %0, msplim" : "=r" (result) );
 688:Generated_Source\PSoC6\pdl\cmsis/include/cmsis_gcc.h ****   return result;
 689:Generated_Source\PSoC6\pdl\cmsis/include/cmsis_gcc.h **** #endif
 690:Generated_Source\PSoC6\pdl\cmsis/include/cmsis_gcc.h **** }
 691:Generated_Source\PSoC6\pdl\cmsis/include/cmsis_gcc.h **** 
 692:Generated_Source\PSoC6\pdl\cmsis/include/cmsis_gcc.h **** 
 693:Generated_Source\PSoC6\pdl\cmsis/include/cmsis_gcc.h **** #if (defined (__ARM_FEATURE_CMSE  ) && (__ARM_FEATURE_CMSE   == 3))
 694:Generated_Source\PSoC6\pdl\cmsis/include/cmsis_gcc.h **** /**
 695:Generated_Source\PSoC6\pdl\cmsis/include/cmsis_gcc.h ****   \brief   Get Main Stack Pointer Limit (non-secure)
 696:Generated_Source\PSoC6\pdl\cmsis/include/cmsis_gcc.h ****   Devices without ARMv8-M Main Extensions (i.e. Cortex-M23) lack the non-secure
 697:Generated_Source\PSoC6\pdl\cmsis/include/cmsis_gcc.h ****   Stack Pointer Limit register hence zero is returned always.
 698:Generated_Source\PSoC6\pdl\cmsis/include/cmsis_gcc.h **** 
 699:Generated_Source\PSoC6\pdl\cmsis/include/cmsis_gcc.h ****   \details Returns the current value of the non-secure Main Stack Pointer Limit(MSPLIM) when in sec
 700:Generated_Source\PSoC6\pdl\cmsis/include/cmsis_gcc.h ****   \return               MSPLIM Register value
 701:Generated_Source\PSoC6\pdl\cmsis/include/cmsis_gcc.h ****  */
 702:Generated_Source\PSoC6\pdl\cmsis/include/cmsis_gcc.h **** __STATIC_FORCEINLINE uint32_t __TZ_get_MSPLIM_NS(void)
 703:Generated_Source\PSoC6\pdl\cmsis/include/cmsis_gcc.h **** {
 704:Generated_Source\PSoC6\pdl\cmsis/include/cmsis_gcc.h **** #if (!(defined (__ARM_ARCH_8M_MAIN__ ) && (__ARM_ARCH_8M_MAIN__ == 1)))
ARM GAS  C:\Users\Vishwas\AppData\Local\Temp\ccDHXqd6.s 			page 30


 705:Generated_Source\PSoC6\pdl\cmsis/include/cmsis_gcc.h ****   // without main extensions, the non-secure MSPLIM is RAZ/WI
 706:Generated_Source\PSoC6\pdl\cmsis/include/cmsis_gcc.h ****   return 0U;
 707:Generated_Source\PSoC6\pdl\cmsis/include/cmsis_gcc.h **** #else
 708:Generated_Source\PSoC6\pdl\cmsis/include/cmsis_gcc.h ****   register uint32_t result;
 709:Generated_Source\PSoC6\pdl\cmsis/include/cmsis_gcc.h ****   __ASM volatile ("MRS %0, msplim_ns" : "=r" (result) );
 710:Generated_Source\PSoC6\pdl\cmsis/include/cmsis_gcc.h ****   return result;
 711:Generated_Source\PSoC6\pdl\cmsis/include/cmsis_gcc.h **** #endif
 712:Generated_Source\PSoC6\pdl\cmsis/include/cmsis_gcc.h **** }
 713:Generated_Source\PSoC6\pdl\cmsis/include/cmsis_gcc.h **** #endif
 714:Generated_Source\PSoC6\pdl\cmsis/include/cmsis_gcc.h **** 
 715:Generated_Source\PSoC6\pdl\cmsis/include/cmsis_gcc.h **** 
 716:Generated_Source\PSoC6\pdl\cmsis/include/cmsis_gcc.h **** /**
 717:Generated_Source\PSoC6\pdl\cmsis/include/cmsis_gcc.h ****   \brief   Set Main Stack Pointer Limit
 718:Generated_Source\PSoC6\pdl\cmsis/include/cmsis_gcc.h ****   Devices without ARMv8-M Main Extensions (i.e. Cortex-M23) lack the non-secure
 719:Generated_Source\PSoC6\pdl\cmsis/include/cmsis_gcc.h ****   Stack Pointer Limit register hence the write is silently ignored in non-secure
 720:Generated_Source\PSoC6\pdl\cmsis/include/cmsis_gcc.h ****   mode.
 721:Generated_Source\PSoC6\pdl\cmsis/include/cmsis_gcc.h **** 
 722:Generated_Source\PSoC6\pdl\cmsis/include/cmsis_gcc.h ****   \details Assigns the given value to the Main Stack Pointer Limit (MSPLIM).
 723:Generated_Source\PSoC6\pdl\cmsis/include/cmsis_gcc.h ****   \param [in]    MainStackPtrLimit  Main Stack Pointer Limit value to set
 724:Generated_Source\PSoC6\pdl\cmsis/include/cmsis_gcc.h ****  */
 725:Generated_Source\PSoC6\pdl\cmsis/include/cmsis_gcc.h **** __STATIC_FORCEINLINE void __set_MSPLIM(uint32_t MainStackPtrLimit)
 726:Generated_Source\PSoC6\pdl\cmsis/include/cmsis_gcc.h **** {
 727:Generated_Source\PSoC6\pdl\cmsis/include/cmsis_gcc.h **** #if (!(defined (__ARM_ARCH_8M_MAIN__ ) && (__ARM_ARCH_8M_MAIN__ == 1)) && \
 728:Generated_Source\PSoC6\pdl\cmsis/include/cmsis_gcc.h ****     (!defined (__ARM_FEATURE_CMSE) || (__ARM_FEATURE_CMSE < 3)))
 729:Generated_Source\PSoC6\pdl\cmsis/include/cmsis_gcc.h ****   // without main extensions, the non-secure MSPLIM is RAZ/WI
 730:Generated_Source\PSoC6\pdl\cmsis/include/cmsis_gcc.h ****   (void)MainStackPtrLimit;
 731:Generated_Source\PSoC6\pdl\cmsis/include/cmsis_gcc.h **** #else
 732:Generated_Source\PSoC6\pdl\cmsis/include/cmsis_gcc.h ****   __ASM volatile ("MSR msplim, %0" : : "r" (MainStackPtrLimit));
 733:Generated_Source\PSoC6\pdl\cmsis/include/cmsis_gcc.h **** #endif
 734:Generated_Source\PSoC6\pdl\cmsis/include/cmsis_gcc.h **** }
 735:Generated_Source\PSoC6\pdl\cmsis/include/cmsis_gcc.h **** 
 736:Generated_Source\PSoC6\pdl\cmsis/include/cmsis_gcc.h **** 
 737:Generated_Source\PSoC6\pdl\cmsis/include/cmsis_gcc.h **** #if (defined (__ARM_FEATURE_CMSE  ) && (__ARM_FEATURE_CMSE   == 3))
 738:Generated_Source\PSoC6\pdl\cmsis/include/cmsis_gcc.h **** /**
 739:Generated_Source\PSoC6\pdl\cmsis/include/cmsis_gcc.h ****   \brief   Set Main Stack Pointer Limit (non-secure)
 740:Generated_Source\PSoC6\pdl\cmsis/include/cmsis_gcc.h ****   Devices without ARMv8-M Main Extensions (i.e. Cortex-M23) lack the non-secure
 741:Generated_Source\PSoC6\pdl\cmsis/include/cmsis_gcc.h ****   Stack Pointer Limit register hence the write is silently ignored.
 742:Generated_Source\PSoC6\pdl\cmsis/include/cmsis_gcc.h **** 
 743:Generated_Source\PSoC6\pdl\cmsis/include/cmsis_gcc.h ****   \details Assigns the given value to the non-secure Main Stack Pointer Limit (MSPLIM) when in secu
 744:Generated_Source\PSoC6\pdl\cmsis/include/cmsis_gcc.h ****   \param [in]    MainStackPtrLimit  Main Stack Pointer value to set
 745:Generated_Source\PSoC6\pdl\cmsis/include/cmsis_gcc.h ****  */
 746:Generated_Source\PSoC6\pdl\cmsis/include/cmsis_gcc.h **** __STATIC_FORCEINLINE void __TZ_set_MSPLIM_NS(uint32_t MainStackPtrLimit)
 747:Generated_Source\PSoC6\pdl\cmsis/include/cmsis_gcc.h **** {
 748:Generated_Source\PSoC6\pdl\cmsis/include/cmsis_gcc.h **** #if (!(defined (__ARM_ARCH_8M_MAIN__ ) && (__ARM_ARCH_8M_MAIN__ == 1)))
 749:Generated_Source\PSoC6\pdl\cmsis/include/cmsis_gcc.h ****   // without main extensions, the non-secure MSPLIM is RAZ/WI
 750:Generated_Source\PSoC6\pdl\cmsis/include/cmsis_gcc.h ****   (void)MainStackPtrLimit;
 751:Generated_Source\PSoC6\pdl\cmsis/include/cmsis_gcc.h **** #else
 752:Generated_Source\PSoC6\pdl\cmsis/include/cmsis_gcc.h ****   __ASM volatile ("MSR msplim_ns, %0" : : "r" (MainStackPtrLimit));
 753:Generated_Source\PSoC6\pdl\cmsis/include/cmsis_gcc.h **** #endif
 754:Generated_Source\PSoC6\pdl\cmsis/include/cmsis_gcc.h **** }
 755:Generated_Source\PSoC6\pdl\cmsis/include/cmsis_gcc.h **** #endif
 756:Generated_Source\PSoC6\pdl\cmsis/include/cmsis_gcc.h **** 
 757:Generated_Source\PSoC6\pdl\cmsis/include/cmsis_gcc.h **** #endif /* ((defined (__ARM_ARCH_8M_MAIN__ ) && (__ARM_ARCH_8M_MAIN__ == 1)) || \
 758:Generated_Source\PSoC6\pdl\cmsis/include/cmsis_gcc.h ****            (defined (__ARM_ARCH_8M_BASE__ ) && (__ARM_ARCH_8M_BASE__ == 1))    ) */
 759:Generated_Source\PSoC6\pdl\cmsis/include/cmsis_gcc.h **** 
 760:Generated_Source\PSoC6\pdl\cmsis/include/cmsis_gcc.h **** 
 761:Generated_Source\PSoC6\pdl\cmsis/include/cmsis_gcc.h **** #if ((defined (__ARM_ARCH_7EM__     ) && (__ARM_ARCH_7EM__     == 1)) || \
ARM GAS  C:\Users\Vishwas\AppData\Local\Temp\ccDHXqd6.s 			page 31


 762:Generated_Source\PSoC6\pdl\cmsis/include/cmsis_gcc.h ****      (defined (__ARM_ARCH_8M_MAIN__ ) && (__ARM_ARCH_8M_MAIN__ == 1))    )
 763:Generated_Source\PSoC6\pdl\cmsis/include/cmsis_gcc.h **** 
 764:Generated_Source\PSoC6\pdl\cmsis/include/cmsis_gcc.h **** /**
 765:Generated_Source\PSoC6\pdl\cmsis/include/cmsis_gcc.h ****   \brief   Get FPSCR
 766:Generated_Source\PSoC6\pdl\cmsis/include/cmsis_gcc.h ****   \details Returns the current value of the Floating Point Status/Control register.
 767:Generated_Source\PSoC6\pdl\cmsis/include/cmsis_gcc.h ****   \return               Floating Point Status/Control register value
 768:Generated_Source\PSoC6\pdl\cmsis/include/cmsis_gcc.h ****  */
 769:Generated_Source\PSoC6\pdl\cmsis/include/cmsis_gcc.h **** __STATIC_FORCEINLINE uint32_t __get_FPSCR(void)
 770:Generated_Source\PSoC6\pdl\cmsis/include/cmsis_gcc.h **** {
 771:Generated_Source\PSoC6\pdl\cmsis/include/cmsis_gcc.h **** #if ((defined (__FPU_PRESENT) && (__FPU_PRESENT == 1U)) && \
 772:Generated_Source\PSoC6\pdl\cmsis/include/cmsis_gcc.h ****      (defined (__FPU_USED   ) && (__FPU_USED    == 1U))     )
 773:Generated_Source\PSoC6\pdl\cmsis/include/cmsis_gcc.h **** #if __has_builtin(__builtin_arm_get_fpscr) || (__GNUC__ > 7) || (__GNUC__ == 7 && __GNUC_MINOR__ >=
 774:Generated_Source\PSoC6\pdl\cmsis/include/cmsis_gcc.h ****   /* see https://gcc.gnu.org/ml/gcc-patches/2017-04/msg00443.html */
 775:Generated_Source\PSoC6\pdl\cmsis/include/cmsis_gcc.h ****   return __builtin_arm_get_fpscr();
 776:Generated_Source\PSoC6\pdl\cmsis/include/cmsis_gcc.h **** #else
 777:Generated_Source\PSoC6\pdl\cmsis/include/cmsis_gcc.h ****   uint32_t result;
 778:Generated_Source\PSoC6\pdl\cmsis/include/cmsis_gcc.h **** 
 779:Generated_Source\PSoC6\pdl\cmsis/include/cmsis_gcc.h ****   __ASM volatile ("VMRS %0, fpscr" : "=r" (result) );
 780:Generated_Source\PSoC6\pdl\cmsis/include/cmsis_gcc.h ****   return(result);
 781:Generated_Source\PSoC6\pdl\cmsis/include/cmsis_gcc.h **** #endif
 782:Generated_Source\PSoC6\pdl\cmsis/include/cmsis_gcc.h **** #else
 783:Generated_Source\PSoC6\pdl\cmsis/include/cmsis_gcc.h ****   return(0U);
 784:Generated_Source\PSoC6\pdl\cmsis/include/cmsis_gcc.h **** #endif
 785:Generated_Source\PSoC6\pdl\cmsis/include/cmsis_gcc.h **** }
 786:Generated_Source\PSoC6\pdl\cmsis/include/cmsis_gcc.h **** 
 787:Generated_Source\PSoC6\pdl\cmsis/include/cmsis_gcc.h **** 
 788:Generated_Source\PSoC6\pdl\cmsis/include/cmsis_gcc.h **** /**
 789:Generated_Source\PSoC6\pdl\cmsis/include/cmsis_gcc.h ****   \brief   Set FPSCR
 790:Generated_Source\PSoC6\pdl\cmsis/include/cmsis_gcc.h ****   \details Assigns the given value to the Floating Point Status/Control register.
 791:Generated_Source\PSoC6\pdl\cmsis/include/cmsis_gcc.h ****   \param [in]    fpscr  Floating Point Status/Control value to set
 792:Generated_Source\PSoC6\pdl\cmsis/include/cmsis_gcc.h ****  */
 793:Generated_Source\PSoC6\pdl\cmsis/include/cmsis_gcc.h **** __STATIC_FORCEINLINE void __set_FPSCR(uint32_t fpscr)
 794:Generated_Source\PSoC6\pdl\cmsis/include/cmsis_gcc.h **** {
 795:Generated_Source\PSoC6\pdl\cmsis/include/cmsis_gcc.h **** #if ((defined (__FPU_PRESENT) && (__FPU_PRESENT == 1U)) && \
 796:Generated_Source\PSoC6\pdl\cmsis/include/cmsis_gcc.h ****      (defined (__FPU_USED   ) && (__FPU_USED    == 1U))     )
 797:Generated_Source\PSoC6\pdl\cmsis/include/cmsis_gcc.h **** #if __has_builtin(__builtin_arm_set_fpscr) || (__GNUC__ > 7) || (__GNUC__ == 7 && __GNUC_MINOR__ >=
 798:Generated_Source\PSoC6\pdl\cmsis/include/cmsis_gcc.h ****   /* see https://gcc.gnu.org/ml/gcc-patches/2017-04/msg00443.html */
 799:Generated_Source\PSoC6\pdl\cmsis/include/cmsis_gcc.h ****   __builtin_arm_set_fpscr(fpscr);
 800:Generated_Source\PSoC6\pdl\cmsis/include/cmsis_gcc.h **** #else
 801:Generated_Source\PSoC6\pdl\cmsis/include/cmsis_gcc.h ****   __ASM volatile ("VMSR fpscr, %0" : : "r" (fpscr) : "vfpcc", "memory");
 802:Generated_Source\PSoC6\pdl\cmsis/include/cmsis_gcc.h **** #endif
 803:Generated_Source\PSoC6\pdl\cmsis/include/cmsis_gcc.h **** #else
 804:Generated_Source\PSoC6\pdl\cmsis/include/cmsis_gcc.h ****   (void)fpscr;
 805:Generated_Source\PSoC6\pdl\cmsis/include/cmsis_gcc.h **** #endif
 806:Generated_Source\PSoC6\pdl\cmsis/include/cmsis_gcc.h **** }
 807:Generated_Source\PSoC6\pdl\cmsis/include/cmsis_gcc.h **** 
 808:Generated_Source\PSoC6\pdl\cmsis/include/cmsis_gcc.h **** #endif /* ((defined (__ARM_ARCH_7EM__     ) && (__ARM_ARCH_7EM__     == 1)) || \
 809:Generated_Source\PSoC6\pdl\cmsis/include/cmsis_gcc.h ****            (defined (__ARM_ARCH_8M_MAIN__ ) && (__ARM_ARCH_8M_MAIN__ == 1))    ) */
 810:Generated_Source\PSoC6\pdl\cmsis/include/cmsis_gcc.h **** 
 811:Generated_Source\PSoC6\pdl\cmsis/include/cmsis_gcc.h **** 
 812:Generated_Source\PSoC6\pdl\cmsis/include/cmsis_gcc.h **** 
 813:Generated_Source\PSoC6\pdl\cmsis/include/cmsis_gcc.h **** /*@} end of CMSIS_Core_RegAccFunctions */
 814:Generated_Source\PSoC6\pdl\cmsis/include/cmsis_gcc.h **** 
 815:Generated_Source\PSoC6\pdl\cmsis/include/cmsis_gcc.h **** 
 816:Generated_Source\PSoC6\pdl\cmsis/include/cmsis_gcc.h **** /* ##########################  Core Instruction Access  ######################### */
 817:Generated_Source\PSoC6\pdl\cmsis/include/cmsis_gcc.h **** /** \defgroup CMSIS_Core_InstructionInterface CMSIS Core Instruction Interface
 818:Generated_Source\PSoC6\pdl\cmsis/include/cmsis_gcc.h ****   Access to dedicated instructions
ARM GAS  C:\Users\Vishwas\AppData\Local\Temp\ccDHXqd6.s 			page 32


 819:Generated_Source\PSoC6\pdl\cmsis/include/cmsis_gcc.h ****   @{
 820:Generated_Source\PSoC6\pdl\cmsis/include/cmsis_gcc.h **** */
 821:Generated_Source\PSoC6\pdl\cmsis/include/cmsis_gcc.h **** 
 822:Generated_Source\PSoC6\pdl\cmsis/include/cmsis_gcc.h **** /* Define macros for porting to both thumb1 and thumb2.
 823:Generated_Source\PSoC6\pdl\cmsis/include/cmsis_gcc.h ****  * For thumb1, use low register (r0-r7), specified by constraint "l"
 824:Generated_Source\PSoC6\pdl\cmsis/include/cmsis_gcc.h ****  * Otherwise, use general registers, specified by constraint "r" */
 825:Generated_Source\PSoC6\pdl\cmsis/include/cmsis_gcc.h **** #if defined (__thumb__) && !defined (__thumb2__)
 826:Generated_Source\PSoC6\pdl\cmsis/include/cmsis_gcc.h **** #define __CMSIS_GCC_OUT_REG(r) "=l" (r)
 827:Generated_Source\PSoC6\pdl\cmsis/include/cmsis_gcc.h **** #define __CMSIS_GCC_RW_REG(r) "+l" (r)
 828:Generated_Source\PSoC6\pdl\cmsis/include/cmsis_gcc.h **** #define __CMSIS_GCC_USE_REG(r) "l" (r)
 829:Generated_Source\PSoC6\pdl\cmsis/include/cmsis_gcc.h **** #else
 830:Generated_Source\PSoC6\pdl\cmsis/include/cmsis_gcc.h **** #define __CMSIS_GCC_OUT_REG(r) "=r" (r)
 831:Generated_Source\PSoC6\pdl\cmsis/include/cmsis_gcc.h **** #define __CMSIS_GCC_RW_REG(r) "+r" (r)
 832:Generated_Source\PSoC6\pdl\cmsis/include/cmsis_gcc.h **** #define __CMSIS_GCC_USE_REG(r) "r" (r)
 833:Generated_Source\PSoC6\pdl\cmsis/include/cmsis_gcc.h **** #endif
 834:Generated_Source\PSoC6\pdl\cmsis/include/cmsis_gcc.h **** 
 835:Generated_Source\PSoC6\pdl\cmsis/include/cmsis_gcc.h **** /**
 836:Generated_Source\PSoC6\pdl\cmsis/include/cmsis_gcc.h ****   \brief   No Operation
 837:Generated_Source\PSoC6\pdl\cmsis/include/cmsis_gcc.h ****   \details No Operation does nothing. This instruction can be used for code alignment purposes.
 838:Generated_Source\PSoC6\pdl\cmsis/include/cmsis_gcc.h ****  */
 839:Generated_Source\PSoC6\pdl\cmsis/include/cmsis_gcc.h **** #define __NOP()                             __ASM volatile ("nop")
 840:Generated_Source\PSoC6\pdl\cmsis/include/cmsis_gcc.h **** 
 841:Generated_Source\PSoC6\pdl\cmsis/include/cmsis_gcc.h **** /**
 842:Generated_Source\PSoC6\pdl\cmsis/include/cmsis_gcc.h ****   \brief   Wait For Interrupt
 843:Generated_Source\PSoC6\pdl\cmsis/include/cmsis_gcc.h ****   \details Wait For Interrupt is a hint instruction that suspends execution until one of a number o
 844:Generated_Source\PSoC6\pdl\cmsis/include/cmsis_gcc.h ****  */
 845:Generated_Source\PSoC6\pdl\cmsis/include/cmsis_gcc.h **** #define __WFI()                             __ASM volatile ("wfi")
 846:Generated_Source\PSoC6\pdl\cmsis/include/cmsis_gcc.h **** 
 847:Generated_Source\PSoC6\pdl\cmsis/include/cmsis_gcc.h **** 
 848:Generated_Source\PSoC6\pdl\cmsis/include/cmsis_gcc.h **** /**
 849:Generated_Source\PSoC6\pdl\cmsis/include/cmsis_gcc.h ****   \brief   Wait For Event
 850:Generated_Source\PSoC6\pdl\cmsis/include/cmsis_gcc.h ****   \details Wait For Event is a hint instruction that permits the processor to enter
 851:Generated_Source\PSoC6\pdl\cmsis/include/cmsis_gcc.h ****            a low-power state until one of a number of events occurs.
 852:Generated_Source\PSoC6\pdl\cmsis/include/cmsis_gcc.h ****  */
 853:Generated_Source\PSoC6\pdl\cmsis/include/cmsis_gcc.h **** #define __WFE()                             __ASM volatile ("wfe")
 854:Generated_Source\PSoC6\pdl\cmsis/include/cmsis_gcc.h **** 
 855:Generated_Source\PSoC6\pdl\cmsis/include/cmsis_gcc.h **** 
 856:Generated_Source\PSoC6\pdl\cmsis/include/cmsis_gcc.h **** /**
 857:Generated_Source\PSoC6\pdl\cmsis/include/cmsis_gcc.h ****   \brief   Send Event
 858:Generated_Source\PSoC6\pdl\cmsis/include/cmsis_gcc.h ****   \details Send Event is a hint instruction. It causes an event to be signaled to the CPU.
 859:Generated_Source\PSoC6\pdl\cmsis/include/cmsis_gcc.h ****  */
 860:Generated_Source\PSoC6\pdl\cmsis/include/cmsis_gcc.h **** #define __SEV()                             __ASM volatile ("sev")
 861:Generated_Source\PSoC6\pdl\cmsis/include/cmsis_gcc.h **** 
 862:Generated_Source\PSoC6\pdl\cmsis/include/cmsis_gcc.h **** 
 863:Generated_Source\PSoC6\pdl\cmsis/include/cmsis_gcc.h **** /**
 864:Generated_Source\PSoC6\pdl\cmsis/include/cmsis_gcc.h ****   \brief   Instruction Synchronization Barrier
 865:Generated_Source\PSoC6\pdl\cmsis/include/cmsis_gcc.h ****   \details Instruction Synchronization Barrier flushes the pipeline in the processor,
 866:Generated_Source\PSoC6\pdl\cmsis/include/cmsis_gcc.h ****            so that all instructions following the ISB are fetched from cache or memory,
 867:Generated_Source\PSoC6\pdl\cmsis/include/cmsis_gcc.h ****            after the instruction has been completed.
 868:Generated_Source\PSoC6\pdl\cmsis/include/cmsis_gcc.h ****  */
 869:Generated_Source\PSoC6\pdl\cmsis/include/cmsis_gcc.h **** __STATIC_FORCEINLINE void __ISB(void)
 870:Generated_Source\PSoC6\pdl\cmsis/include/cmsis_gcc.h **** {
 871:Generated_Source\PSoC6\pdl\cmsis/include/cmsis_gcc.h ****   __ASM volatile ("isb 0xF":::"memory");
 872:Generated_Source\PSoC6\pdl\cmsis/include/cmsis_gcc.h **** }
 873:Generated_Source\PSoC6\pdl\cmsis/include/cmsis_gcc.h **** 
 874:Generated_Source\PSoC6\pdl\cmsis/include/cmsis_gcc.h **** 
 875:Generated_Source\PSoC6\pdl\cmsis/include/cmsis_gcc.h **** /**
ARM GAS  C:\Users\Vishwas\AppData\Local\Temp\ccDHXqd6.s 			page 33


 876:Generated_Source\PSoC6\pdl\cmsis/include/cmsis_gcc.h ****   \brief   Data Synchronization Barrier
 877:Generated_Source\PSoC6\pdl\cmsis/include/cmsis_gcc.h ****   \details Acts as a special kind of Data Memory Barrier.
 878:Generated_Source\PSoC6\pdl\cmsis/include/cmsis_gcc.h ****            It completes when all explicit memory accesses before this instruction complete.
 879:Generated_Source\PSoC6\pdl\cmsis/include/cmsis_gcc.h ****  */
 880:Generated_Source\PSoC6\pdl\cmsis/include/cmsis_gcc.h **** __STATIC_FORCEINLINE void __DSB(void)
 881:Generated_Source\PSoC6\pdl\cmsis/include/cmsis_gcc.h **** {
 882:Generated_Source\PSoC6\pdl\cmsis/include/cmsis_gcc.h ****   __ASM volatile ("dsb 0xF":::"memory");
 415              		.loc 2 882 0
 416              		.syntax unified
 417              	@ 882 "Generated_Source\PSoC6\pdl\cmsis/include/cmsis_gcc.h" 1
 418 0014 BFF34F8F 		dsb 0xF
 419              	@ 0 "" 2
 420              		.thumb
 421              		.syntax unified
 422              	.LBE13:
 423              	.LBE12:
 424              	.LBB14:
 425              	.LBB15:
 871:Generated_Source\PSoC6\pdl\cmsis/include/cmsis_gcc.h **** }
 426              		.loc 2 871 0
 427              		.syntax unified
 428              	@ 871 "Generated_Source\PSoC6\pdl\cmsis/include/cmsis_gcc.h" 1
 429 0018 BFF36F8F 		isb 0xF
 430              	@ 0 "" 2
 431              		.thumb
 432              		.syntax unified
 433              	.LBE15:
 434              	.LBE14:
 457:system_psoc6_cm4.c ****     #endif /* (__FPU_USED) && (__FPU_USED == 1U) */
 435              		.loc 1 457 0
 436 001c FFF7FEFF 		bl	Cy_SysLib_ExitCriticalSection
 437              	.LVL47:
 438 0020 08BD     		pop	{r3, pc}
 439              	.L34:
 440 0022 00BF     		.align	2
 441              	.L33:
 442 0024 00ED00E0 		.word	-536810240
 443              		.cfi_endproc
 444              	.LFE164:
 445              		.size	Cy_SystemInitFpuEnable, .-Cy_SystemInitFpuEnable
 446              		.global	cy_delay32kMs
 447              		.global	cy_delayFreqMhz
 448              		.global	cy_delayFreqKhz
 449              		.global	cy_delayFreqHz
 450              		.global	cy_PeriClkFreqHz
 451              		.global	cy_Hfclk0FreqHz
 452              		.global	SystemCoreClock
 453              		.section	.rodata
 454              		.align	2
 455              		.set	.LANCHOR2,. + 0
 456              		.type	systemIpcPipeConfigCm4.11590, %object
 457              		.size	systemIpcPipeConfigCm4.11590, 52
 458              	systemIpcPipeConfigCm4.11590:
 459 0000 03000000 		.word	3
 460 0004 01000000 		.word	1
 461 0008 01000000 		.word	1
 462 000c 00000000 		.word	0
ARM GAS  C:\Users\Vishwas\AppData\Local\Temp\ccDHXqd6.s 			page 34


 463 0010 05036000 		.word	6292229
 464 0014 04000000 		.word	4
 465 0018 01000000 		.word	1
 466 001c 00000000 		.word	0
 467 0020 01000000 		.word	1
 468 0024 06046000 		.word	6292486
 469 0028 08000000 		.word	8
 470 002c 60010000 		.word	systemIpcPipeSysCbArray.11589
 471 0030 00000000 		.word	Cy_SysIpcPipeIsrCm4
 472              		.data
 473              		.align	2
 474              		.set	.LANCHOR0,. + 0
 475              		.type	cy_Hfclk0FreqHz, %object
 476              		.size	cy_Hfclk0FreqHz, 4
 477              	cy_Hfclk0FreqHz:
 478 0000 00127A00 		.word	8000000
 479              		.type	cy_PeriClkFreqHz, %object
 480              		.size	cy_PeriClkFreqHz, 4
 481              	cy_PeriClkFreqHz:
 482 0004 00093D00 		.word	4000000
 483              		.type	SystemCoreClock, %object
 484              		.size	SystemCoreClock, 4
 485              	SystemCoreClock:
 486 0008 00127A00 		.word	8000000
 487              		.type	cy_delayFreqHz, %object
 488              		.size	cy_delayFreqHz, 4
 489              	cy_delayFreqHz:
 490 000c 00127A00 		.word	8000000
 491              		.type	cy_delayFreqMhz, %object
 492              		.size	cy_delayFreqMhz, 1
 493              	cy_delayFreqMhz:
 494 0010 08       		.byte	8
 495 0011 000000   		.space	3
 496              		.type	cy_delayFreqKhz, %object
 497              		.size	cy_delayFreqKhz, 4
 498              	cy_delayFreqKhz:
 499 0014 401F0000 		.word	8000
 500              		.type	cy_delay32kMs, %object
 501              		.size	cy_delay32kMs, 4
 502              	cy_delay32kMs:
 503 0018 0000A00F 		.word	262144000
 504              		.bss
 505              		.align	2
 506              		.set	.LANCHOR1,. + 0
 507              		.type	systemIpcPipeEpArray.11588, %object
 508              		.size	systemIpcPipeEpArray.11588, 352
 509              	systemIpcPipeEpArray.11588:
 510 0000 00000000 		.space	352
 510      00000000 
 510      00000000 
 510      00000000 
 510      00000000 
 511              		.type	systemIpcPipeSysCbArray.11589, %object
 512              		.size	systemIpcPipeSysCbArray.11589, 32
 513              	systemIpcPipeSysCbArray.11589:
 514 0160 00000000 		.space	32
 514      00000000 
ARM GAS  C:\Users\Vishwas\AppData\Local\Temp\ccDHXqd6.s 			page 35


 514      00000000 
 514      00000000 
 514      00000000 
 515              		.text
 516              	.Letext0:
 517              		.file 3 "c:\\program files (x86)\\gnu tools arm embedded\\5.4 2016q3\\arm-none-eabi\\include\\mach
 518              		.file 4 "c:\\program files (x86)\\gnu tools arm embedded\\5.4 2016q3\\arm-none-eabi\\include\\sys\
 519              		.file 5 "Generated_Source\\PSoC6\\pdl\\devices/psoc6/include/cy8c6247bzi_d54.h"
 520              		.file 6 "Generated_Source\\PSoC6\\pdl\\cmsis/include/core_cm4.h"
 521              		.file 7 "Generated_Source\\PSoC6\\pdl\\devices/psoc6/include/ip/cyip_cpuss.h"
 522              		.file 8 "Generated_Source\\PSoC6\\pdl\\devices/psoc6/include/ip/cyip_ipc.h"
 523              		.file 9 "Generated_Source\\PSoC6\\pdl\\devices/psoc6/include/ip/cyip_srss.h"
 524              		.file 10 "Generated_Source\\PSoC6\\pdl\\devices/psoc6/include/psoc6_01_config.h"
 525              		.file 11 "Generated_Source\\PSoC6\\pdl\\drivers/peripheral/device/cy_device.h"
 526              		.file 12 "Generated_Source\\PSoC6\\pdl\\drivers/peripheral/syslib/cy_syslib.h"
 527              		.file 13 "Generated_Source\\PSoC6\\pdl\\drivers/peripheral/ipc/cy_ipc_pipe.h"
 528              		.file 14 "Generated_Source\\PSoC6\\pdl\\drivers/peripheral/ipc/cy_ipc_sema.h"
 529              		.file 15 "Generated_Source\\PSoC6\\pdl\\drivers/peripheral/flash/cy_flash.h"